	.text
	.def	@feat.00;
	.scl	3;
	.type	0;
	.endef
	.globl	@feat.00
.set @feat.00, 0
	.file	"Amp module"
	.def	INDEX_prelude_s_string_i64_;
	.scl	2;
	.type	32;
	.endef
	.globl	INDEX_prelude_s_string_i64_     # -- Begin function INDEX_prelude_s_string_i64_
	.p2align	4, 0x90
INDEX_prelude_s_string_i64_:            # @INDEX_prelude_s_string_i64_
.seh_proc INDEX_prelude_s_string_i64_
# %bb.0:                                # %entry
	subq	$16, %rsp
	.seh_stackalloc 16
	.seh_endprologue
	movq	%rdx, 8(%rsp)
	movb	$0, 7(%rsp)
	cmpq	8(%rcx), %rdx
	jl	.LBB0_2
# %bb.1:                                # %ifThen
	movb	$0, 7(%rsp)
	jmp	.LBB0_3
.LBB0_2:                                # %ifElse
	movq	(%rcx), %rax
	movq	8(%rsp), %rcx
	movb	(%rax,%rcx), %al
	movb	%al, 7(%rsp)
.LBB0_3:                                # %ifExit
	movb	7(%rsp), %al
	addq	$16, %rsp
	retq
	.seh_endproc
                                        # -- End function
	.def	EQUAL_prelude_s_string_prelude_s_string_;
	.scl	2;
	.type	32;
	.endef
	.globl	EQUAL_prelude_s_string_prelude_s_string_ # -- Begin function EQUAL_prelude_s_string_prelude_s_string_
	.p2align	4, 0x90
EQUAL_prelude_s_string_prelude_s_string_: # @EQUAL_prelude_s_string_prelude_s_string_
.seh_proc EQUAL_prelude_s_string_prelude_s_string_
# %bb.0:                                # %entry
	subq	$40, %rsp
	.seh_stackalloc 40
	.seh_endprologue
	movq	8(%rcx), %rax
	cmpq	8(%rdx), %rax
	je	.LBB1_3
# %bb.1:                                # %ifThen
	xorl	%eax, %eax
	jmp	.LBB1_2
.LBB1_3:                                # %ifExit
	movq	(%rcx), %rax
	cmpq	(%rdx), %rax
	je	.LBB1_5
# %bb.4:
	xorl	%eax, %eax
	testb	%al, %al
	je	.LBB1_8
.LBB1_7:                                # %ifThen3
	movb	$1, %al
	jmp	.LBB1_2
.LBB1_5:                                # %rhsAnd
	movq	8(%rcx), %rax
	cmpq	8(%rdx), %rax
	sete	%al
	testb	%al, %al
	jne	.LBB1_7
.LBB1_8:                                # %ifExit4
	movq	(%rcx), %rcx
	movq	(%rdx), %rdx
	callq	strcmp
	testl	%eax, %eax
	sete	%al
.LBB1_2:                                # %ifThen
	addq	$40, %rsp
	retq
	.seh_endproc
                                        # -- End function
	.def	NEQUAL_prelude_s_string_prelude_s_string_;
	.scl	2;
	.type	32;
	.endef
	.globl	NEQUAL_prelude_s_string_prelude_s_string_ # -- Begin function NEQUAL_prelude_s_string_prelude_s_string_
	.p2align	4, 0x90
NEQUAL_prelude_s_string_prelude_s_string_: # @NEQUAL_prelude_s_string_prelude_s_string_
.seh_proc NEQUAL_prelude_s_string_prelude_s_string_
# %bb.0:                                # %entry
	subq	$40, %rsp
	.seh_stackalloc 40
	.seh_endprologue
	movq	(%rcx), %rcx
	movq	(%rdx), %rdx
	callq	strcmp
	testl	%eax, %eax
	setne	%al
	addq	$40, %rsp
	retq
	.seh_endproc
                                        # -- End function
	.def	NULLOP_prelude_s_string_prelude_s_string_;
	.scl	2;
	.type	32;
	.endef
	.globl	NULLOP_prelude_s_string_prelude_s_string_ # -- Begin function NULLOP_prelude_s_string_prelude_s_string_
	.p2align	4, 0x90
NULLOP_prelude_s_string_prelude_s_string_: # @NULLOP_prelude_s_string_prelude_s_string_
.seh_proc NULLOP_prelude_s_string_prelude_s_string_
# %bb.0:                                # %entry
	pushq	%rsi
	.seh_pushreg %rsi
	pushq	%rdi
	.seh_pushreg %rdi
	subq	$72, %rsp
	.seh_stackalloc 72
	.seh_endprologue
	movq	%r8, %rdi
	movq	%rdx, %rax
	movq	%rcx, %rsi
	movq	$0, 48(%rsp)
	movq	$0, 40(%rsp)
	leaq	__strdata14695981039346656037_0(%rip), %rcx
	movq	%rcx, 56(%rsp)
	movq	$0, 64(%rsp)
	leaq	56(%rsp), %rdx
	movq	%rax, %rcx
	callq	EQUAL_prelude_s_string_prelude_s_string_
	testb	%al, %al
	movq	(%rdi), %rax
	movq	8(%rdi), %rcx
	movq	%rcx, 48(%rsp)
	movq	%rax, 40(%rsp)
	movq	40(%rsp), %rax
	movq	48(%rsp), %rcx
	movq	%rcx, 8(%rsi)
	movq	%rax, (%rsi)
	movq	%rsi, %rax
	addq	$72, %rsp
	popq	%rdi
	popq	%rsi
	retq
	.seh_endproc
                                        # -- End function
	.def	prelude_equals;
	.scl	2;
	.type	32;
	.endef
	.globl	prelude_equals                  # -- Begin function prelude_equals
	.p2align	4, 0x90
prelude_equals:                         # @prelude_equals
.seh_proc prelude_equals
# %bb.0:                                # %entry
	subq	$40, %rsp
	.seh_stackalloc 40
	.seh_endprologue
	callq	prelude_cmp
	testl	%eax, %eax
	sete	%al
	addq	$40, %rsp
	retq
	.seh_endproc
                                        # -- End function
	.def	prelude_cmpStruct;
	.scl	2;
	.type	32;
	.endef
	.globl	prelude_cmpStruct               # -- Begin function prelude_cmpStruct
	.p2align	4, 0x90
prelude_cmpStruct:                      # @prelude_cmpStruct
.seh_proc prelude_cmpStruct
# %bb.0:                                # %entry
	pushq	%r15
	.seh_pushreg %r15
	pushq	%r14
	.seh_pushreg %r14
	pushq	%r13
	.seh_pushreg %r13
	pushq	%r12
	.seh_pushreg %r12
	pushq	%rsi
	.seh_pushreg %rsi
	pushq	%rdi
	.seh_pushreg %rdi
	pushq	%rbp
	.seh_pushreg %rbp
	pushq	%rbx
	.seh_pushreg %rbx
	subq	$280, %rsp                      # imm = 0x118
	.seh_stackalloc 280
	.seh_endprologue
	movq	%rdx, %rsi
	movq	%rcx, %rdi
	movq	$0, 48(%rsp)
	movq	(%rcx), %rax
	movq	8(%rax), %rax
	movq	(%rdx), %rcx
	movq	8(%rcx), %rcx
	movq	16(%rax), %rax
	cmpq	16(%rcx), %rax
	jge	.LBB5_2
# %bb.1:                                # %ifThen
	movq	(%rdi), %rax
	jmp	.LBB5_3
.LBB5_2:                                # %ifElse
	movq	(%rsi), %rax
.LBB5_3:                                # %ifExit
	movq	8(%rax), %rax
	movq	16(%rax), %rax
	movq	%rax, 48(%rsp)
	movq	48(%rsp), %r12
	decq	%r12
	movq	$0, 264(%rsp)
	movq	%r12, 272(%rsp)
	movq	$0, 64(%rsp)
	leaq	__strdata13738145760655681112_0(%rip), %rbx
	leaq	120(%rsp), %r14
	leaq	88(%rsp), %r15
	.p2align	4, 0x90
.LBB5_4:                                # %forCond
                                        # =>This Inner Loop Header: Depth=1
	movq	64(%rsp), %rax
	movq	%rax, 40(%rsp)
	cmpq	%r12, %rax
	jg	.LBB5_8
# %bb.5:                                # %forEnter
                                        #   in Loop: Header=BB5_4 Depth=1
	movq	(%rdi), %rax
	movq	8(%rax), %rax
	movq	40(%rsp), %r8
	movq	16(%rax), %rdx
	movq	24(%rax), %rcx
	movq	%rbx, 232(%rsp)
	movq	$58, 240(%rsp)
	movq	$22, 248(%rsp)
	movq	$20, 256(%rsp)
	leaq	232(%rsp), %rax
	movq	%rax, 32(%rsp)
	movl	$32, %r9d
	callq	__runtime_arrayGet
	movq	16(%rax), %rax
	movq	%rax, 104(%rsp)
	movq	(%rdi), %rax
	movq	8(%rdi), %r13
	movq	8(%rax), %rax
	movq	40(%rsp), %r8
	movq	16(%rax), %rdx
	movq	24(%rax), %rcx
	movq	%rbx, 200(%rsp)
	movq	$29, 224(%rsp)
	movq	$23, 216(%rsp)
	movq	$58, 208(%rsp)
	leaq	200(%rsp), %rax
	movq	%rax, 32(%rsp)
	movl	$32, %r9d
	callq	__runtime_arrayGet
	addq	24(%rax), %r13
	movq	%r13, 112(%rsp)
	movq	%r13, 128(%rsp)
	movq	104(%rsp), %rax
	movq	%rax, 120(%rsp)
	movq	(%rsi), %rax
	movq	8(%rax), %rax
	movq	40(%rsp), %r8
	movq	16(%rax), %rdx
	movq	24(%rax), %rcx
	movq	%rbx, 168(%rsp)
	movq	$58, 176(%rsp)
	movq	$27, 184(%rsp)
	movq	$20, 192(%rsp)
	leaq	168(%rsp), %rax
	movq	%rax, 32(%rsp)
	movl	$32, %r9d
	callq	__runtime_arrayGet
	movq	16(%rax), %rax
	movq	%rax, 72(%rsp)
	movq	(%rsi), %rax
	movq	8(%rsi), %rbp
	movq	8(%rax), %rax
	movq	40(%rsp), %r8
	movq	16(%rax), %rdx
	movq	24(%rax), %rcx
	movq	%rbx, 136(%rsp)
	movq	$29, 160(%rsp)
	movq	$28, 152(%rsp)
	movq	$58, 144(%rsp)
	leaq	136(%rsp), %rax
	movq	%rax, 32(%rsp)
	movl	$32, %r9d
	callq	__runtime_arrayGet
	addq	24(%rax), %rbp
	movq	%rbp, 80(%rsp)
	movq	%rbp, 96(%rsp)
	movq	72(%rsp), %rax
	movq	%rax, 88(%rsp)
	movq	%r14, %rcx
	movq	%r15, %rdx
	callq	prelude_cmp
	movl	%eax, 60(%rsp)
	testl	%eax, %eax
	jne	.LBB5_6
# %bb.7:                                # %ifExit16
                                        #   in Loop: Header=BB5_4 Depth=1
	incq	64(%rsp)
	jmp	.LBB5_4
.LBB5_8:                                # %forExit
	xorl	%eax, %eax
	jmp	.LBB5_9
.LBB5_6:                                # %ifThen15
	movl	60(%rsp), %eax
.LBB5_9:                                # %forExit
	addq	$280, %rsp                      # imm = 0x118
	popq	%rbx
	popq	%rbp
	popq	%rdi
	popq	%rsi
	popq	%r12
	popq	%r13
	popq	%r14
	popq	%r15
	retq
	.seh_endproc
                                        # -- End function
	.def	prelude_cmpTuple;
	.scl	2;
	.type	32;
	.endef
	.globl	prelude_cmpTuple                # -- Begin function prelude_cmpTuple
	.p2align	4, 0x90
prelude_cmpTuple:                       # @prelude_cmpTuple
.seh_proc prelude_cmpTuple
# %bb.0:                                # %entry
	pushq	%r15
	.seh_pushreg %r15
	pushq	%r14
	.seh_pushreg %r14
	pushq	%r13
	.seh_pushreg %r13
	pushq	%r12
	.seh_pushreg %r12
	pushq	%rsi
	.seh_pushreg %rsi
	pushq	%rdi
	.seh_pushreg %rdi
	pushq	%rbp
	.seh_pushreg %rbp
	pushq	%rbx
	.seh_pushreg %rbx
	subq	$280, %rsp                      # imm = 0x118
	.seh_stackalloc 280
	.seh_endprologue
	movq	%rdx, %rsi
	movq	%rcx, %rdi
	movq	$0, 48(%rsp)
	movq	(%rcx), %rax
	movq	8(%rax), %rax
	movq	(%rdx), %rcx
	movq	8(%rcx), %rcx
	movq	(%rax), %rax
	cmpq	(%rcx), %rax
	jge	.LBB6_2
# %bb.1:                                # %ifThen
	movq	(%rdi), %rax
	jmp	.LBB6_3
.LBB6_2:                                # %ifElse
	movq	(%rsi), %rax
.LBB6_3:                                # %ifExit
	movq	8(%rax), %rax
	movq	(%rax), %rax
	movq	%rax, 48(%rsp)
	movq	48(%rsp), %r12
	decq	%r12
	movq	$0, 264(%rsp)
	movq	%r12, 272(%rsp)
	movq	$0, 64(%rsp)
	leaq	__strdata13738145760655681112_0(%rip), %rbx
	leaq	120(%rsp), %r14
	leaq	88(%rsp), %r15
	.p2align	4, 0x90
.LBB6_4:                                # %forCond
                                        # =>This Inner Loop Header: Depth=1
	movq	64(%rsp), %rax
	movq	%rax, 40(%rsp)
	cmpq	%r12, %rax
	jg	.LBB6_8
# %bb.5:                                # %forEnter
                                        #   in Loop: Header=BB6_4 Depth=1
	movq	(%rdi), %rax
	movq	8(%rax), %rax
	movq	40(%rsp), %r8
	movq	(%rax), %rdx
	movq	8(%rax), %rcx
	movq	%rbx, 232(%rsp)
	movq	$58, 240(%rsp)
	movq	$54, 248(%rsp)
	movq	$20, 256(%rsp)
	leaq	232(%rsp), %rax
	movq	%rax, 32(%rsp)
	movl	$8, %r9d
	callq	__runtime_arrayGet
	movq	(%rax), %rax
	movq	%rax, 104(%rsp)
	movq	(%rdi), %rax
	movq	8(%rdi), %r13
	movq	8(%rax), %rax
	movq	40(%rsp), %r8
	movq	24(%rax), %rdx
	movq	32(%rax), %rcx
	movq	%rbx, 200(%rsp)
	movq	$29, 224(%rsp)
	movq	$55, 216(%rsp)
	movq	$58, 208(%rsp)
	leaq	200(%rsp), %rax
	movq	%rax, 32(%rsp)
	movl	$8, %r9d
	callq	__runtime_arrayGet
	addq	(%rax), %r13
	movq	%r13, 112(%rsp)
	movq	%r13, 128(%rsp)
	movq	104(%rsp), %rax
	movq	%rax, 120(%rsp)
	movq	(%rsi), %rax
	movq	8(%rax), %rax
	movq	40(%rsp), %r8
	movq	(%rax), %rdx
	movq	8(%rax), %rcx
	movq	%rbx, 168(%rsp)
	movq	$58, 176(%rsp)
	movq	$59, 184(%rsp)
	movq	$20, 192(%rsp)
	leaq	168(%rsp), %rax
	movq	%rax, 32(%rsp)
	movl	$8, %r9d
	callq	__runtime_arrayGet
	movq	(%rax), %rax
	movq	%rax, 72(%rsp)
	movq	(%rsi), %rax
	movq	8(%rsi), %rbp
	movq	8(%rax), %rax
	movq	40(%rsp), %r8
	movq	24(%rax), %rdx
	movq	32(%rax), %rcx
	movq	%rbx, 136(%rsp)
	movq	$29, 160(%rsp)
	movq	$60, 152(%rsp)
	movq	$58, 144(%rsp)
	leaq	136(%rsp), %rax
	movq	%rax, 32(%rsp)
	movl	$8, %r9d
	callq	__runtime_arrayGet
	addq	(%rax), %rbp
	movq	%rbp, 80(%rsp)
	movq	%rbp, 96(%rsp)
	movq	72(%rsp), %rax
	movq	%rax, 88(%rsp)
	movq	%r14, %rcx
	movq	%r15, %rdx
	callq	prelude_cmp
	movl	%eax, 60(%rsp)
	testl	%eax, %eax
	jne	.LBB6_6
# %bb.7:                                # %ifExit16
                                        #   in Loop: Header=BB6_4 Depth=1
	incq	64(%rsp)
	jmp	.LBB6_4
.LBB6_8:                                # %forExit
	xorl	%eax, %eax
	jmp	.LBB6_9
.LBB6_6:                                # %ifThen15
	movl	60(%rsp), %eax
.LBB6_9:                                # %forExit
	addq	$280, %rsp                      # imm = 0x118
	popq	%rbx
	popq	%rbp
	popq	%rdi
	popq	%rsi
	popq	%r12
	popq	%r13
	popq	%r14
	popq	%r15
	retq
	.seh_endproc
                                        # -- End function
	.def	prelude_cmpArray;
	.scl	2;
	.type	32;
	.endef
	.globl	prelude_cmpArray                # -- Begin function prelude_cmpArray
	.p2align	4, 0x90
prelude_cmpArray:                       # @prelude_cmpArray
.seh_proc prelude_cmpArray
# %bb.0:                                # %entry
	pushq	%r15
	.seh_pushreg %r15
	pushq	%r14
	.seh_pushreg %r14
	pushq	%rsi
	.seh_pushreg %rsi
	pushq	%rdi
	.seh_pushreg %rdi
	pushq	%rbx
	.seh_pushreg %rbx
	subq	$208, %rsp
	.seh_stackalloc 208
	.seh_endprologue
	movq	%rdx, %rsi
	movq	%rcx, %rdi
	movq	$0, 80(%rsp)
	movq	(%rcx), %rax
	movq	8(%rax), %rax
	cmpb	$1, (%rax)
	jne	.LBB7_2
# %bb.1:                                # %ifThen
	movq	8(%rdi), %rax
	movq	(%rax), %rax
	jmp	.LBB7_3
.LBB7_2:                                # %ifElse
	movq	(%rdi), %rax
	movq	8(%rax), %rax
	movq	16(%rax), %rax
.LBB7_3:                                # %ifExit
	movq	%rax, 80(%rsp)
	movq	80(%rsp), %rax
	movq	%rax, 72(%rsp)
	movq	$0, 64(%rsp)
	movq	(%rsi), %rax
	movq	8(%rax), %rax
	cmpb	$1, (%rax)
	jne	.LBB7_5
# %bb.4:                                # %ifThen3
	movq	8(%rsi), %rax
	movq	(%rax), %rax
	jmp	.LBB7_6
.LBB7_5:                                # %ifElse4
	movq	(%rsi), %rax
	movq	8(%rax), %rax
	movq	16(%rax), %rax
.LBB7_6:                                # %ifExit6
	movq	%rax, 64(%rsp)
	movq	64(%rsp), %rax
	movq	%rax, 56(%rsp)
	movq	$0, 48(%rsp)
	movq	(%rdi), %rax
	movq	8(%rax), %rax
	cmpb	$1, (%rax)
	jne	.LBB7_8
# %bb.7:                                # %ifThen8
	movq	8(%rdi), %rax
	movq	8(%rax), %rax
	jmp	.LBB7_9
.LBB7_8:                                # %ifElse9
	movq	8(%rdi), %rax
.LBB7_9:                                # %ifExit10
	movq	%rax, 48(%rsp)
	movq	48(%rsp), %rax
	movq	%rax, 120(%rsp)
	movq	$0, 40(%rsp)
	movq	(%rsi), %rax
	movq	8(%rax), %rax
	cmpb	$1, (%rax)
	jne	.LBB7_11
# %bb.10:                               # %ifThen12
	movq	8(%rsi), %rax
	movq	8(%rax), %rax
	jmp	.LBB7_12
.LBB7_11:                               # %ifElse13
	movq	8(%rsi), %rax
.LBB7_12:                               # %ifExit14
	movq	%rax, 40(%rsp)
	movq	40(%rsp), %rax
	movq	%rax, 112(%rsp)
	movq	$0, 32(%rsp)
	movq	72(%rsp), %rax
	cmpq	56(%rsp), %rax
	jge	.LBB7_14
# %bb.13:                               # %ifThen15
	movq	72(%rsp), %rax
	jmp	.LBB7_15
.LBB7_14:                               # %ifElse16
	movq	56(%rsp), %rax
.LBB7_15:                               # %ifExit17
	movq	%rax, 32(%rsp)
	movq	32(%rsp), %rbx
	decq	%rbx
	movq	$0, 192(%rsp)
	movq	%rbx, 200(%rsp)
	movq	$0, 96(%rsp)
	leaq	144(%rsp), %r14
	leaq	128(%rsp), %r15
	.p2align	4, 0x90
.LBB7_16:                               # %forCond
                                        # =>This Inner Loop Header: Depth=1
	movq	96(%rsp), %rax
	movq	%rax, 104(%rsp)
	cmpq	%rbx, %rax
	jg	.LBB7_20
# %bb.17:                               # %forEnter
                                        #   in Loop: Header=BB7_16 Depth=1
	movq	(%rdi), %rax
	movq	8(%rax), %rax
	movq	8(%rax), %rax
	movq	%rax, 176(%rsp)
	movq	104(%rsp), %rcx
	movq	72(%rsp), %rdx
	imulq	%rcx, %rdx
	addq	120(%rsp), %rdx
	movq	%rdx, 184(%rsp)
	movq	%rax, 144(%rsp)
	movq	%rdx, 152(%rsp)
	movq	(%rsi), %rax
	movq	8(%rax), %rax
	movq	8(%rax), %rax
	movq	%rax, 160(%rsp)
	imulq	56(%rsp), %rcx
	addq	112(%rsp), %rcx
	movq	%rcx, 168(%rsp)
	movq	%rax, 128(%rsp)
	movq	%rcx, 136(%rsp)
	movq	%r14, %rcx
	movq	%r15, %rdx
	callq	prelude_cmp
	movl	%eax, 92(%rsp)
	testl	%eax, %eax
	jne	.LBB7_18
# %bb.19:                               # %ifExit23
                                        #   in Loop: Header=BB7_16 Depth=1
	incq	96(%rsp)
	jmp	.LBB7_16
.LBB7_20:                               # %forExit
	xorl	%eax, %eax
	jmp	.LBB7_21
.LBB7_18:                               # %ifThen22
	movl	92(%rsp), %eax
.LBB7_21:                               # %forExit
	addq	$208, %rsp
	popq	%rbx
	popq	%rdi
	popq	%rsi
	popq	%r14
	popq	%r15
	retq
	.seh_endproc
                                        # -- End function
	.def	prelude_cmp;
	.scl	2;
	.type	32;
	.endef
	.globl	prelude_cmp                     # -- Begin function prelude_cmp
	.p2align	4, 0x90
prelude_cmp:                            # @prelude_cmp
.seh_proc prelude_cmp
# %bb.0:                                # %entry
	subq	$72, %rsp
	.seh_stackalloc 72
	.seh_endprologue
	movq	$0, 48(%rsp)
	movq	(%rcx), %rax
	movq	(%rdx), %r8
	movq	16(%rax), %rax
	cmpq	16(%r8), %rax
	jge	.LBB8_2
# %bb.1:                                # %ifThen
	movq	(%rcx), %rax
	jmp	.LBB8_3
.LBB8_2:                                # %ifElse
	movq	(%rdx), %rax
.LBB8_3:                                # %ifExit
	movq	16(%rax), %rax
	movq	%rax, 48(%rsp)
	movq	48(%rsp), %rax
	movq	%rax, 56(%rsp)
	movq	(%rcx), %rax
	movq	(%rdx), %r8
	movl	(%rax), %eax
	cmpl	(%r8), %eax
	je	.LBB8_5
.LBB8_4:                                # %ifThen1
	movq	8(%rcx), %rcx
	movq	8(%rdx), %rdx
	movq	56(%rsp), %r8
	callq	memcmp
	jmp	.LBB8_7
.LBB8_5:                                # %ifExit2
	movq	(%rcx), %rax
	movl	(%rax), %r8d
	movl	%r8d, 44(%rsp)
	movq	(%rdx), %rax
	movl	(%rax), %eax
	movl	%eax, 68(%rsp)
	cmpl	$6, %r8d
	jne	.LBB8_8
# %bb.6:                                # %matchArm
	callq	prelude_cmpStruct
	jmp	.LBB8_7
.LBB8_8:                                # %matchCond
	cmpl	$15, 44(%rsp)
	jne	.LBB8_10
# %bb.9:                                # %matchArm6
	callq	prelude_cmpTuple
	jmp	.LBB8_7
.LBB8_10:                               # %matchCond7
	cmpl	$4, 44(%rsp)
	jne	.LBB8_12
# %bb.11:                               # %matchArm9
	callq	prelude_cmpArray
	jmp	.LBB8_7
.LBB8_12:                               # %matchCond10
	cmpl	$2, 44(%rsp)
	jne	.LBB8_4
# %bb.13:                               # %matchArm12
	movq	8(%rcx), %rax
	movq	(%rax), %rcx
	movq	8(%rdx), %rax
	movq	(%rax), %rdx
	callq	strcmp
.LBB8_7:                                # %matchArm
	nop
	addq	$72, %rsp
	retq
	.seh_endproc
                                        # -- End function
	.def	global_main;
	.scl	2;
	.type	32;
	.endef
	.globl	global_main                     # -- Begin function global_main
	.p2align	4, 0x90
global_main:                            # @global_main
.seh_proc global_main
# %bb.0:                                # %entry
	subq	$40, %rsp
	.seh_stackalloc 40
	.seh_endprologue
	callq	global_f
	nop
	addq	$40, %rsp
	retq
	.seh_endproc
                                        # -- End function
	.def	global_f;
	.scl	2;
	.type	32;
	.endef
	.globl	global_f                        # -- Begin function global_f
	.p2align	4, 0x90
global_f:                               # @global_f
.seh_proc global_f
# %bb.0:                                # %entry
	pushq	%rax
	.seh_stackalloc 8
	.seh_endprologue
	movw	$90, 6(%rsp)
	popq	%rax
	retq
	.seh_endproc
                                        # -- End function
	.def	ADD_raylib_s_Vector2_raylib_s_Vector2_;
	.scl	2;
	.type	32;
	.endef
	.globl	ADD_raylib_s_Vector2_raylib_s_Vector2_ # -- Begin function ADD_raylib_s_Vector2_raylib_s_Vector2_
	.p2align	4, 0x90
ADD_raylib_s_Vector2_raylib_s_Vector2_: # @ADD_raylib_s_Vector2_raylib_s_Vector2_
.seh_proc ADD_raylib_s_Vector2_raylib_s_Vector2_
# %bb.0:                                # %entry
	subq	$24, %rsp
	.seh_stackalloc 24
	.seh_endprologue
	movq	%rcx, 16(%rsp)
	movq	%rdx, 8(%rsp)
	movss	16(%rsp), %xmm0                 # xmm0 = mem[0],zero,zero,zero
	movss	20(%rsp), %xmm1                 # xmm1 = mem[0],zero,zero,zero
	addss	8(%rsp), %xmm0
	movss	%xmm0, (%rsp)
	addss	12(%rsp), %xmm1
	movss	%xmm1, 4(%rsp)
	movq	(%rsp), %rax
	addq	$24, %rsp
	retq
	.seh_endproc
                                        # -- End function
	.def	MINUS_raylib_s_Vector2_raylib_s_Vector2_;
	.scl	2;
	.type	32;
	.endef
	.globl	MINUS_raylib_s_Vector2_raylib_s_Vector2_ # -- Begin function MINUS_raylib_s_Vector2_raylib_s_Vector2_
	.p2align	4, 0x90
MINUS_raylib_s_Vector2_raylib_s_Vector2_: # @MINUS_raylib_s_Vector2_raylib_s_Vector2_
.seh_proc MINUS_raylib_s_Vector2_raylib_s_Vector2_
# %bb.0:                                # %entry
	subq	$24, %rsp
	.seh_stackalloc 24
	.seh_endprologue
	movq	%rcx, 16(%rsp)
	movq	%rdx, 8(%rsp)
	movss	16(%rsp), %xmm0                 # xmm0 = mem[0],zero,zero,zero
	movss	20(%rsp), %xmm1                 # xmm1 = mem[0],zero,zero,zero
	subss	8(%rsp), %xmm0
	movss	%xmm0, (%rsp)
	subss	12(%rsp), %xmm1
	movss	%xmm1, 4(%rsp)
	movq	(%rsp), %rax
	addq	$24, %rsp
	retq
	.seh_endproc
                                        # -- End function
	.def	MULT_raylib_s_Vector2_f64_;
	.scl	2;
	.type	32;
	.endef
	.globl	MULT_raylib_s_Vector2_f64_      # -- Begin function MULT_raylib_s_Vector2_f64_
	.p2align	4, 0x90
MULT_raylib_s_Vector2_f64_:             # @MULT_raylib_s_Vector2_f64_
.seh_proc MULT_raylib_s_Vector2_f64_
# %bb.0:                                # %entry
	subq	$24, %rsp
	.seh_stackalloc 24
	.seh_endprologue
	movq	%rcx, 8(%rsp)
	movsd	%xmm1, 16(%rsp)
	cvtsd2ss	%xmm1, %xmm0
	movss	8(%rsp), %xmm1                  # xmm1 = mem[0],zero,zero,zero
	mulss	%xmm0, %xmm1
	movss	%xmm1, (%rsp)
	mulss	12(%rsp), %xmm0
	movss	%xmm0, 4(%rsp)
	movq	(%rsp), %rax
	addq	$24, %rsp
	retq
	.seh_endproc
                                        # -- End function
	.def	raylib_s_Vector2_magnitude;
	.scl	2;
	.type	32;
	.endef
	.globl	raylib_s_Vector2_magnitude      # -- Begin function raylib_s_Vector2_magnitude
	.p2align	4, 0x90
raylib_s_Vector2_magnitude:             # @raylib_s_Vector2_magnitude
.seh_proc raylib_s_Vector2_magnitude
# %bb.0:                                # %entry
	subq	$40, %rsp
	.seh_stackalloc 40
	.seh_endprologue
	movq	%rcx, 32(%rsp)
	movss	32(%rsp), %xmm0                 # xmm0 = mem[0],zero,zero,zero
	movss	36(%rsp), %xmm1                 # xmm1 = mem[0],zero,zero,zero
	mulss	%xmm0, %xmm0
	mulss	%xmm1, %xmm1
	addss	%xmm0, %xmm1
	xorps	%xmm0, %xmm0
	cvtss2sd	%xmm1, %xmm0
	xorps	%xmm1, %xmm1
	ucomisd	%xmm1, %xmm0
	jb	.LBB14_2
# %bb.1:
	sqrtsd	%xmm0, %xmm0
	jmp	.LBB14_3
.LBB14_2:                               # %call.sqrt
	callq	sqrt
.LBB14_3:                               # %entry.split
	nop
	addq	$40, %rsp
	retq
	.seh_endproc
                                        # -- End function
	.def	raylib_s_Vector2_normalized;
	.scl	2;
	.type	32;
	.endef
	.globl	raylib_s_Vector2_normalized     # -- Begin function raylib_s_Vector2_normalized
	.p2align	4, 0x90
raylib_s_Vector2_normalized:            # @raylib_s_Vector2_normalized
.seh_proc raylib_s_Vector2_normalized
# %bb.0:                                # %entry
	subq	$56, %rsp
	.seh_stackalloc 56
	.seh_endprologue
	movq	%rcx, 40(%rsp)
	callq	raylib_s_Vector2_magnitude
	cvtsd2ss	%xmm0, %xmm0
	movss	%xmm0, 52(%rsp)
	movss	40(%rsp), %xmm1                 # xmm1 = mem[0],zero,zero,zero
	movss	44(%rsp), %xmm2                 # xmm2 = mem[0],zero,zero,zero
	divss	%xmm0, %xmm1
	movss	%xmm1, 32(%rsp)
	divss	%xmm0, %xmm2
	movss	%xmm2, 36(%rsp)
	movq	32(%rsp), %rax
	addq	$56, %rsp
	retq
	.seh_endproc
                                        # -- End function
	.def	__runtime_panic;
	.scl	2;
	.type	32;
	.endef
	.globl	__runtime_panic                 # -- Begin function __runtime_panic
	.p2align	4, 0x90
__runtime_panic:                        # @__runtime_panic
.seh_proc __runtime_panic
# %bb.0:                                # %entry
	subq	$56, %rsp
	.seh_stackalloc 56
	.seh_endprologue
	leaq	__strdata11818253923660986196_3(%rip), %rax
	movq	%rax, 40(%rsp)
	movq	$15, 48(%rsp)
	leaq	ArrayViewEmpty(%rip), %rdx
	leaq	40(%rsp), %rcx
	callq	std_io_printLn
	movl	$-1, %ecx
	callq	exit
	nop
	addq	$56, %rsp
	retq
	.seh_endproc
                                        # -- End function
	.def	__runtime_arraySet;
	.scl	2;
	.type	32;
	.endef
	.globl	__runtime_arraySet              # -- Begin function __runtime_arraySet
	.p2align	4, 0x90
__runtime_arraySet:                     # @__runtime_arraySet
.seh_proc __runtime_arraySet
# %bb.0:                                # %entry
	pushq	%rsi
	.seh_pushreg %rsi
	pushq	%rdi
	.seh_pushreg %rdi
	subq	$552, %rsp                      # imm = 0x228
	.seh_stackalloc 552
	.seh_endprologue
	movq	%rcx, 296(%rsp)
	movq	%rdx, 48(%rsp)
	movq	%r8, 40(%rsp)
	movq	%r9, 288(%rsp)
	cmpq	%rdx, %r8
	jl	.LBB17_2
# %bb.1:                                # %ifThen
	movq	616(%rsp), %rax
	leaq	__strdata5918273981919991649_2(%rip), %rcx
	movq	%rcx, 320(%rsp)
	movq	$75, 328(%rsp)
	movq	(%rax), %rcx
	movq	8(%rax), %rdx
	movq	%rdx, 312(%rsp)
	movq	%rcx, 304(%rsp)
	leaq	304(%rsp), %rcx
	movq	%rcx, 280(%rsp)
	leaq	__typeTable+1536(%rip), %rcx
	movq	%rcx, 272(%rsp)
	movq	16(%rax), %rcx
	movq	%rcx, 248(%rsp)
	leaq	248(%rsp), %rcx
	movq	%rcx, 264(%rsp)
	leaq	__typeTable+192(%rip), %rcx
	movq	%rcx, 256(%rsp)
	movq	24(%rax), %rax
	movq	%rax, 224(%rsp)
	leaq	224(%rsp), %rax
	movq	%rax, 240(%rsp)
	movq	%rcx, 232(%rsp)
	movq	48(%rsp), %rax
	movq	%rax, 200(%rsp)
	leaq	200(%rsp), %rax
	movq	%rax, 216(%rsp)
	movq	%rcx, 208(%rsp)
	movq	40(%rsp), %rax
	movq	%rax, 176(%rsp)
	leaq	176(%rsp), %rax
	movq	%rax, 192(%rsp)
	movq	%rcx, 184(%rsp)
	movq	48(%rsp), %rax
	decq	%rax
	movq	%rax, 152(%rsp)
	leaq	152(%rsp), %rax
	movq	%rax, 168(%rsp)
	movq	%rcx, 160(%rsp)
	movq	$0, 56(%rsp)
	movq	$0, 64(%rsp)
	movq	$0, 72(%rsp)
	movq	$0, 80(%rsp)
	movq	$0, 88(%rsp)
	movq	$0, 96(%rsp)
	movq	$0, 104(%rsp)
	movq	$0, 112(%rsp)
	movq	$0, 120(%rsp)
	movq	$0, 128(%rsp)
	movq	$0, 136(%rsp)
	movq	$0, 144(%rsp)
	movq	272(%rsp), %rax
	movq	280(%rsp), %rcx
	movq	%rax, 56(%rsp)
	movq	%rcx, 64(%rsp)
	movq	256(%rsp), %rax
	movq	264(%rsp), %rcx
	movq	%rcx, 80(%rsp)
	movq	%rax, 72(%rsp)
	movq	232(%rsp), %rax
	movq	240(%rsp), %rcx
	movq	%rcx, 96(%rsp)
	movq	%rax, 88(%rsp)
	movq	208(%rsp), %rax
	movq	216(%rsp), %rcx
	movq	%rcx, 112(%rsp)
	movq	%rax, 104(%rsp)
	movq	184(%rsp), %rax
	movq	192(%rsp), %rcx
	movq	%rcx, 128(%rsp)
	movq	%rax, 120(%rsp)
	movq	160(%rsp), %rax
	movq	168(%rsp), %rcx
	movq	%rcx, 144(%rsp)
	movq	%rax, 136(%rsp)
	leaq	360(%rsp), %rax
	leaq	56(%rsp), %rsi
	movl	$12, %ecx
	movq	%rax, %rdi
	rep;movsq (%rsi), %es:(%rdi)
	movq	$6, 336(%rsp)
	movq	%rax, 344(%rsp)
	movq	$16, 352(%rsp)
	leaq	320(%rsp), %rcx
	leaq	336(%rsp), %rdx
	callq	std_io_printLn
	callq	__runtime_panic
.LBB17_2:                               # %ifExit
	movq	288(%rsp), %r8
	movq	40(%rsp), %rcx
	imulq	%r8, %rcx
	addq	296(%rsp), %rcx
	movq	608(%rsp), %rdx
	callq	memcpy
	nop
	addq	$552, %rsp                      # imm = 0x228
	popq	%rdi
	popq	%rsi
	retq
	.seh_endproc
                                        # -- End function
	.def	__runtime_arrayGet;
	.scl	2;
	.type	32;
	.endef
	.globl	__runtime_arrayGet              # -- Begin function __runtime_arrayGet
	.p2align	4, 0x90
__runtime_arrayGet:                     # @__runtime_arrayGet
.seh_proc __runtime_arrayGet
# %bb.0:                                # %entry
	pushq	%rsi
	.seh_pushreg %rsi
	pushq	%rdi
	.seh_pushreg %rdi
	subq	$552, %rsp                      # imm = 0x228
	.seh_stackalloc 552
	.seh_endprologue
	movq	%rcx, 296(%rsp)
	movq	%rdx, 48(%rsp)
	movq	%r8, 40(%rsp)
	movq	%r9, 288(%rsp)
	cmpq	%rdx, %r8
	jl	.LBB18_2
# %bb.1:                                # %ifThen
	movq	608(%rsp), %rax
	leaq	__strdata5918273981919991649_2(%rip), %rcx
	movq	%rcx, 320(%rsp)
	movq	$75, 328(%rsp)
	movq	(%rax), %rcx
	movq	8(%rax), %rdx
	movq	%rdx, 312(%rsp)
	movq	%rcx, 304(%rsp)
	leaq	304(%rsp), %rcx
	movq	%rcx, 280(%rsp)
	leaq	__typeTable+1536(%rip), %rcx
	movq	%rcx, 272(%rsp)
	movq	16(%rax), %rcx
	movq	%rcx, 248(%rsp)
	leaq	248(%rsp), %rcx
	movq	%rcx, 264(%rsp)
	leaq	__typeTable+192(%rip), %rcx
	movq	%rcx, 256(%rsp)
	movq	24(%rax), %rax
	movq	%rax, 224(%rsp)
	leaq	224(%rsp), %rax
	movq	%rax, 240(%rsp)
	movq	%rcx, 232(%rsp)
	movq	48(%rsp), %rax
	movq	%rax, 200(%rsp)
	leaq	200(%rsp), %rax
	movq	%rax, 216(%rsp)
	movq	%rcx, 208(%rsp)
	movq	40(%rsp), %rax
	movq	%rax, 176(%rsp)
	leaq	176(%rsp), %rax
	movq	%rax, 192(%rsp)
	movq	%rcx, 184(%rsp)
	movq	48(%rsp), %rax
	decq	%rax
	movq	%rax, 152(%rsp)
	leaq	152(%rsp), %rax
	movq	%rax, 168(%rsp)
	movq	%rcx, 160(%rsp)
	movq	$0, 56(%rsp)
	movq	$0, 64(%rsp)
	movq	$0, 72(%rsp)
	movq	$0, 80(%rsp)
	movq	$0, 88(%rsp)
	movq	$0, 96(%rsp)
	movq	$0, 104(%rsp)
	movq	$0, 112(%rsp)
	movq	$0, 120(%rsp)
	movq	$0, 128(%rsp)
	movq	$0, 136(%rsp)
	movq	$0, 144(%rsp)
	movq	272(%rsp), %rax
	movq	280(%rsp), %rcx
	movq	%rax, 56(%rsp)
	movq	%rcx, 64(%rsp)
	movq	256(%rsp), %rax
	movq	264(%rsp), %rcx
	movq	%rcx, 80(%rsp)
	movq	%rax, 72(%rsp)
	movq	232(%rsp), %rax
	movq	240(%rsp), %rcx
	movq	%rcx, 96(%rsp)
	movq	%rax, 88(%rsp)
	movq	208(%rsp), %rax
	movq	216(%rsp), %rcx
	movq	%rcx, 112(%rsp)
	movq	%rax, 104(%rsp)
	movq	184(%rsp), %rax
	movq	192(%rsp), %rcx
	movq	%rcx, 128(%rsp)
	movq	%rax, 120(%rsp)
	movq	160(%rsp), %rax
	movq	168(%rsp), %rcx
	movq	%rcx, 144(%rsp)
	movq	%rax, 136(%rsp)
	leaq	360(%rsp), %rax
	leaq	56(%rsp), %rsi
	movl	$12, %ecx
	movq	%rax, %rdi
	rep;movsq (%rsi), %es:(%rdi)
	movq	$6, 336(%rsp)
	movq	%rax, 344(%rsp)
	movq	$16, 352(%rsp)
	leaq	320(%rsp), %rcx
	leaq	336(%rsp), %rdx
	callq	std_io_printLn
	callq	__runtime_panic
	xorl	%eax, %eax
	jmp	.LBB18_3
.LBB18_2:                               # %ifExit
	movq	40(%rsp), %rax
	imulq	288(%rsp), %rax
	addq	296(%rsp), %rax
.LBB18_3:                               # %ifExit
	addq	$552, %rsp                      # imm = 0x228
	popq	%rdi
	popq	%rsi
	retq
	.seh_endproc
                                        # -- End function
	.def	std_io___openStdOut;
	.scl	2;
	.type	32;
	.endef
	.globl	std_io___openStdOut             # -- Begin function std_io___openStdOut
	.p2align	4, 0x90
std_io___openStdOut:                    # @std_io___openStdOut
.seh_proc std_io___openStdOut
# %bb.0:                                # %entry
	pushq	%rsi
	.seh_pushreg %rsi
	subq	$48, %rsp
	.seh_stackalloc 48
	.seh_endprologue
	movq	%rcx, %rsi
	movl	$-11, %ecx
	callq	GetStdHandle
	movq	%rax, 32(%rsp)
	movl	$2, 40(%rsp)
	movq	%rax, (%rsi)
	movq	40(%rsp), %rax
	movq	%rax, 8(%rsi)
	movq	%rsi, %rax
	addq	$48, %rsp
	popq	%rsi
	retq
	.seh_endproc
                                        # -- End function
	.def	std_io___openStdIn;
	.scl	2;
	.type	32;
	.endef
	.globl	std_io___openStdIn              # -- Begin function std_io___openStdIn
	.p2align	4, 0x90
std_io___openStdIn:                     # @std_io___openStdIn
.seh_proc std_io___openStdIn
# %bb.0:                                # %entry
	pushq	%rsi
	.seh_pushreg %rsi
	subq	$48, %rsp
	.seh_stackalloc 48
	.seh_endprologue
	movq	%rcx, %rsi
	movl	$-10, %ecx
	callq	GetStdHandle
	movq	%rax, 32(%rsp)
	movl	$1, 40(%rsp)
	movq	%rax, (%rsi)
	movq	40(%rsp), %rax
	movq	%rax, 8(%rsi)
	movq	%rsi, %rax
	addq	$48, %rsp
	popq	%rsi
	retq
	.seh_endproc
                                        # -- End function
	.def	std_io_openfile;
	.scl	2;
	.type	32;
	.endef
	.globl	std_io_openfile                 # -- Begin function std_io_openfile
	.p2align	4, 0x90
std_io_openfile:                        # @std_io_openfile
.seh_proc std_io_openfile
# %bb.0:                                # %entry
	pushq	%rsi
	.seh_pushreg %rsi
	subq	$144, %rsp
	.seh_stackalloc 144
	.seh_endprologue
	movq	%rcx, %rsi
	movl	%r8d, 84(%rsp)
	movl	%r9d, 92(%rsp)
	movl	$0, 80(%rsp)
	movl	$0, 72(%rsp)
	movl	$0, 68(%rsp)
	movl	%r9d, 76(%rsp)
	testl	%r9d, %r9d
	je	.LBB21_1
# %bb.2:                                # %matchCond
	cmpl	$1, 76(%rsp)
	jne	.LBB21_4
# %bb.3:                                # %matchArm3
	movl	$2, 68(%rsp)
	jmp	.LBB21_10
.LBB21_1:                               # %matchArm
	movl	$1, 68(%rsp)
	jmp	.LBB21_10
.LBB21_4:                               # %matchCond4
	cmpl	$2, 76(%rsp)
	jne	.LBB21_6
# %bb.5:                                # %matchArm6
	movl	$3, 68(%rsp)
	jmp	.LBB21_10
.LBB21_6:                               # %matchCond7
	cmpl	$3, 76(%rsp)
	jne	.LBB21_8
# %bb.7:                                # %matchArm9
	movl	$4, 68(%rsp)
	jmp	.LBB21_10
.LBB21_8:                               # %matchCond10
	cmpl	$4, 76(%rsp)
	jne	.LBB21_10
# %bb.9:                                # %matchArm12
	movl	$5, 68(%rsp)
.LBB21_10:                              # %matchExit
	movl	68(%rsp), %eax
	movl	%eax, 88(%rsp)
	cmpl	$1, 84(%rsp)
	je	.LBB21_11
# %bb.12:                               # %ifExit
	cmpl	$2, 84(%rsp)
	je	.LBB21_13
.LBB21_14:                              # %ifExit19
	cmpl	$4, 84(%rsp)
	jne	.LBB21_16
.LBB21_15:                              # %ifThen21
	orb	$-64, 83(%rsp)
	movl	72(%rsp), %eax
	orl	$2, %eax
	movl	%eax, 72(%rsp)
	orb	$1, %al
	movb	%al, 72(%rsp)
.LBB21_16:                              # %ifExit26
	movq	(%rdx), %rcx
	movl	80(%rsp), %edx
	movl	72(%rsp), %r8d
	movl	88(%rsp), %eax
	movl	%eax, 32(%rsp)
	movq	$0, 48(%rsp)
	movl	$128, 40(%rsp)
	xorl	%r9d, %r9d
	callq	CreateFileA
	movq	%rax, 136(%rsp)
	movq	%rax, 128(%rsp)
	movq	%rax, 96(%rsp)
	movl	84(%rsp), %ecx
	movl	%ecx, 104(%rsp)
	movq	%rax, 112(%rsp)
	movq	104(%rsp), %rcx
	movq	%rcx, 120(%rsp)
	movq	%rcx, 8(%rsi)
	movq	%rax, (%rsi)
	movq	%rsi, %rax
	addq	$144, %rsp
	popq	%rsi
	retq
.LBB21_11:                              # %ifThen
	orb	$-128, 83(%rsp)
	orb	$1, 72(%rsp)
	cmpl	$2, 84(%rsp)
	jne	.LBB21_14
.LBB21_13:                              # %ifThen16
	orb	$64, 83(%rsp)
	orb	$2, 72(%rsp)
	cmpl	$4, 84(%rsp)
	je	.LBB21_15
	jmp	.LBB21_16
	.seh_endproc
                                        # -- End function
	.def	std_io_s_file_close;
	.scl	2;
	.type	32;
	.endef
	.globl	std_io_s_file_close             # -- Begin function std_io_s_file_close
	.p2align	4, 0x90
std_io_s_file_close:                    # @std_io_s_file_close
.seh_proc std_io_s_file_close
# %bb.0:                                # %entry
	subq	$40, %rsp
	.seh_stackalloc 40
	.seh_endprologue
	movq	(%rcx), %rcx
	callq	CloseHandle
	nop
	addq	$40, %rsp
	retq
	.seh_endproc
                                        # -- End function
	.def	std_io_s_file_write;
	.scl	2;
	.type	32;
	.endef
	.globl	std_io_s_file_write             # -- Begin function std_io_s_file_write
	.p2align	4, 0x90
std_io_s_file_write:                    # @std_io_s_file_write
.seh_proc std_io_s_file_write
# %bb.0:                                # %entry
	pushq	%rsi
	.seh_pushreg %rsi
	pushq	%rdi
	.seh_pushreg %rdi
	subq	$120, %rsp
	.seh_stackalloc 120
	.seh_endprologue
	movq	%rcx, %rsi
	movq	$0, 88(%rsp)
	movq	$0, 96(%rsp)
	movq	$0, 104(%rsp)
	movq	$500, 112(%rsp)                 # imm = 0x1F4
	movq	$0, 40(%rsp)
	movq	$0, 48(%rsp)
	movq	$0, 56(%rsp)
	movq	$500, 64(%rsp)                  # imm = 0x1F4
	leaq	40(%rsp), %rdi
	movq	%rdi, %rcx
	callq	std_stringbuilder_s_StringBuilder_append
	leaq	72(%rsp), %rcx
	movq	%rdi, %rdx
	callq	std_stringbuilder_s_StringBuilder_toString
	movq	72(%rsp), %rdx
	movq	48(%rsp), %r8
	movq	%rsi, %rcx
	callq	std_io_s_file_writeBytes
	movl	%eax, 36(%rsp)
	movq	%rdi, %rcx
	callq	std_stringbuilder_s_StringBuilder_free
	movl	36(%rsp), %eax
	addq	$120, %rsp
	popq	%rdi
	popq	%rsi
	retq
	.seh_endproc
                                        # -- End function
	.def	std_io_s_file_writeBytes;
	.scl	2;
	.type	32;
	.endef
	.globl	std_io_s_file_writeBytes        # -- Begin function std_io_s_file_writeBytes
	.p2align	4, 0x90
std_io_s_file_writeBytes:               # @std_io_s_file_writeBytes
.seh_proc std_io_s_file_writeBytes
# %bb.0:                                # %entry
	subq	$88, %rsp
	.seh_stackalloc 88
	.seh_endprologue
	movq	%rdx, 64(%rsp)
	movq	%r8, 56(%rsp)
	cmpl	$2, 8(%rcx)
	je	.LBB24_1
# %bb.2:                                # %rhsAnd
	cmpl	$4, 8(%rcx)
	setne	%al
	testb	%al, %al
	jne	.LBB24_4
.LBB24_6:                               # %ifExit
	movl	$0, 52(%rsp)
	movq	(%rcx), %rcx
	movq	64(%rsp), %rdx
	movl	56(%rsp), %r8d
	movq	$0, 32(%rsp)
	leaq	52(%rsp), %r9
	callq	WriteFile
	movl	52(%rsp), %eax
	jmp	.LBB24_5
.LBB24_1:
	xorl	%eax, %eax
	testb	%al, %al
	je	.LBB24_6
.LBB24_4:                               # %ifThen
	leaq	__strdata7765365735052747056_4(%rip), %rax
	movq	%rax, 72(%rsp)
	movq	$36, 80(%rsp)
	leaq	ArrayViewEmpty(%rip), %rdx
	leaq	72(%rsp), %rcx
	callq	std_io_printLn
	xorl	%eax, %eax
.LBB24_5:                               # %ifThen
	addq	$88, %rsp
	retq
	.seh_endproc
                                        # -- End function
	.def	std_io_s_file_readBytes;
	.scl	2;
	.type	32;
	.endef
	.globl	std_io_s_file_readBytes         # -- Begin function std_io_s_file_readBytes
	.p2align	4, 0x90
std_io_s_file_readBytes:                # @std_io_s_file_readBytes
.seh_proc std_io_s_file_readBytes
# %bb.0:                                # %entry
	subq	$72, %rsp
	.seh_stackalloc 72
	.seh_endprologue
	movq	%rdx, 48(%rsp)
	movl	%r8d, 44(%rsp)
	cmpl	$1, 8(%rcx)
	je	.LBB25_1
# %bb.2:                                # %rhsAnd
	cmpl	$4, 8(%rcx)
	setne	%al
	testb	%al, %al
	jne	.LBB25_4
.LBB25_6:                               # %ifExit
	movl	$0, 40(%rsp)
	movq	(%rcx), %rcx
	movq	48(%rsp), %rdx
	movl	44(%rsp), %r8d
	movq	$0, 32(%rsp)
	leaq	40(%rsp), %r9
	callq	ReadFile
	movl	40(%rsp), %eax
	jmp	.LBB25_5
.LBB25_1:
	xorl	%eax, %eax
	testb	%al, %al
	je	.LBB25_6
.LBB25_4:                               # %ifThen
	leaq	__strdata11261377872992151548_1(%rip), %rax
	movq	%rax, 56(%rsp)
	movq	$36, 64(%rsp)
	leaq	ArrayViewEmpty(%rip), %rdx
	leaq	56(%rsp), %rcx
	callq	std_io_printLn
	xorl	%eax, %eax
.LBB25_5:                               # %ifThen
	addq	$72, %rsp
	retq
	.seh_endproc
                                        # -- End function
	.def	std_io_s_file_allocReadAll;
	.scl	2;
	.type	32;
	.endef
	.globl	std_io_s_file_allocReadAll      # -- Begin function std_io_s_file_allocReadAll
	.p2align	4, 0x90
std_io_s_file_allocReadAll:             # @std_io_s_file_allocReadAll
.seh_proc std_io_s_file_allocReadAll
# %bb.0:                                # %entry
	pushq	%rsi
	.seh_pushreg %rsi
	subq	$64, %rsp
	.seh_stackalloc 64
	.seh_endprologue
	movq	%rcx, %rsi
	cmpl	$1, 8(%rcx)
	je	.LBB26_1
# %bb.2:                                # %rhsAnd
	cmpl	$4, 8(%rsi)
	setne	%al
	testb	%al, %al
	jne	.LBB26_4
.LBB26_6:                               # %ifExit
	movq	%rsi, %rcx
	callq	std_io_s_file_getSize
	movq	%rax, 40(%rsp)
	movq	%rax, %rcx
	callq	malloc
	movq	%rax, 32(%rsp)
	movl	40(%rsp), %r8d
	movq	%rsi, %rcx
	movq	%rax, %rdx
	callq	std_io_s_file_readBytes
	movq	32(%rsp), %rax
	jmp	.LBB26_5
.LBB26_1:
	xorl	%eax, %eax
	testb	%al, %al
	je	.LBB26_6
.LBB26_4:                               # %ifThen
	leaq	__strdata11261377872992151548_1(%rip), %rax
	movq	%rax, 48(%rsp)
	movq	$36, 56(%rsp)
	leaq	ArrayViewEmpty(%rip), %rdx
	leaq	48(%rsp), %rcx
	callq	std_io_printLn
	xorl	%eax, %eax
.LBB26_5:                               # %ifThen
	addq	$64, %rsp
	popq	%rsi
	retq
	.seh_endproc
                                        # -- End function
	.def	std_io_s_file_getSize;
	.scl	2;
	.type	32;
	.endef
	.globl	std_io_s_file_getSize           # -- Begin function std_io_s_file_getSize
	.p2align	4, 0x90
std_io_s_file_getSize:                  # @std_io_s_file_getSize
.seh_proc std_io_s_file_getSize
# %bb.0:                                # %entry
	subq	$40, %rsp
	.seh_stackalloc 40
	.seh_endprologue
	movq	$0, 32(%rsp)
	movq	(%rcx), %rcx
	leaq	32(%rsp), %rdx
	callq	GetFileSizeEx
	movq	32(%rsp), %rax
	addq	$40, %rsp
	retq
	.seh_endproc
                                        # -- End function
	.def	std_io_print;
	.scl	2;
	.type	32;
	.endef
	.globl	std_io_print                    # -- Begin function std_io_print
	.p2align	4, 0x90
std_io_print:                           # @std_io_print
.seh_proc std_io_print
# %bb.0:                                # %entry
	subq	$40, %rsp
	.seh_stackalloc 40
	.seh_endprologue
	movq	%rdx, %r8
	movq	%rcx, %rdx
	leaq	std_io_stdout(%rip), %rcx
	callq	std_io_s_file_write
	nop
	addq	$40, %rsp
	retq
	.seh_endproc
                                        # -- End function
	.def	std_io_printLn;
	.scl	2;
	.type	32;
	.endef
	.globl	std_io_printLn                  # -- Begin function std_io_printLn
	.p2align	4, 0x90
std_io_printLn:                         # @std_io_printLn
.seh_proc std_io_printLn
# %bb.0:                                # %entry
	subq	$56, %rsp
	.seh_stackalloc 56
	.seh_endprologue
	callq	std_io_print
	leaq	__strdata12638153115695167445_2(%rip), %rax
	movq	%rax, 40(%rsp)
	movq	$1, 48(%rsp)
	leaq	ArrayViewEmpty(%rip), %rdx
	leaq	40(%rsp), %rcx
	callq	std_io_print
	nop
	addq	$56, %rsp
	retq
	.seh_endproc
                                        # -- End function
	.def	std_io_readChar;
	.scl	2;
	.type	32;
	.endef
	.globl	std_io_readChar                 # -- Begin function std_io_readChar
	.p2align	4, 0x90
std_io_readChar:                        # @std_io_readChar
.seh_proc std_io_readChar
# %bb.0:                                # %entry
	subq	$40, %rsp
	.seh_stackalloc 40
	.seh_endprologue
	movl	$0, 36(%rsp)
	leaq	std_io_stdin(%rip), %rcx
	leaq	36(%rsp), %rdx
	movl	$1, %r8d
	callq	std_io_s_file_readBytes
	movl	36(%rsp), %eax
	addq	$40, %rsp
	retq
	.seh_endproc
                                        # -- End function
	.def	std_io_readLnToStringBuilder;
	.scl	2;
	.type	32;
	.endef
	.globl	std_io_readLnToStringBuilder    # -- Begin function std_io_readLnToStringBuilder
	.p2align	4, 0x90
std_io_readLnToStringBuilder:           # @std_io_readLnToStringBuilder
.seh_proc std_io_readLnToStringBuilder
# %bb.0:                                # %entry
	subq	$56, %rsp
	.seh_stackalloc 56
	.seh_endprologue
	movq	%rcx, 48(%rsp)
	.p2align	4, 0x90
.LBB31_1:                               # %whileCond
                                        # =>This Inner Loop Header: Depth=1
	callq	std_io_readChar
	movl	%eax, 44(%rsp)
	cmpl	$-1, 44(%rsp)
	je	.LBB31_2
# %bb.3:                                # %rhsAnd
                                        #   in Loop: Header=BB31_1 Depth=1
	cmpl	$10, 44(%rsp)
	setne	%al
	testb	%al, %al
	jne	.LBB31_5
	jmp	.LBB31_6
	.p2align	4, 0x90
.LBB31_2:                               #   in Loop: Header=BB31_1 Depth=1
	xorl	%eax, %eax
	testb	%al, %al
	je	.LBB31_6
.LBB31_5:                               # %whileEnter
                                        #   in Loop: Header=BB31_1 Depth=1
	movq	48(%rsp), %rcx
	movzbl	44(%rsp), %edx
	callq	std_stringbuilder_s_StringBuilder_appendByte
	jmp	.LBB31_1
.LBB31_6:                               # %whileExit
	movq	48(%rsp), %rcx
	movb	$10, %dl
	callq	std_stringbuilder_s_StringBuilder_appendByte
	nop
	addq	$56, %rsp
	retq
	.seh_endproc
                                        # -- End function
	.def	INDEX_std_stringbuilder_s_StringBuilder_i64_;
	.scl	2;
	.type	32;
	.endef
	.globl	INDEX_std_stringbuilder_s_StringBuilder_i64_ # -- Begin function INDEX_std_stringbuilder_s_StringBuilder_i64_
	.p2align	4, 0x90
INDEX_std_stringbuilder_s_StringBuilder_i64_: # @INDEX_std_stringbuilder_s_StringBuilder_i64_
.seh_proc INDEX_std_stringbuilder_s_StringBuilder_i64_
# %bb.0:                                # %entry
	subq	$16, %rsp
	.seh_stackalloc 16
	.seh_endprologue
	movq	%rdx, 8(%rsp)
	movb	$0, 7(%rsp)
	cmpq	8(%rcx), %rdx
	jl	.LBB32_2
# %bb.1:                                # %ifThen
	movb	$0, 7(%rsp)
	jmp	.LBB32_3
.LBB32_2:                               # %ifElse
	movq	(%rcx), %rax
	movq	8(%rsp), %rcx
	movb	(%rax,%rcx), %al
	movb	%al, 7(%rsp)
.LBB32_3:                               # %ifExit
	movb	7(%rsp), %al
	addq	$16, %rsp
	retq
	.seh_endproc
                                        # -- End function
	.def	std_stringbuilder_s_StringBuilder_append;
	.scl	2;
	.type	32;
	.endef
	.globl	std_stringbuilder_s_StringBuilder_append # -- Begin function std_stringbuilder_s_StringBuilder_append
	.p2align	4, 0x90
std_stringbuilder_s_StringBuilder_append: # @std_stringbuilder_s_StringBuilder_append
.seh_proc std_stringbuilder_s_StringBuilder_append
# %bb.0:                                # %entry
	pushq	%r15
	.seh_pushreg %r15
	pushq	%r14
	.seh_pushreg %r14
	pushq	%r13
	.seh_pushreg %r13
	pushq	%r12
	.seh_pushreg %r12
	pushq	%rsi
	.seh_pushreg %rsi
	pushq	%rdi
	.seh_pushreg %rdi
	pushq	%rbx
	.seh_pushreg %rbx
	subq	$128, %rsp
	.seh_stackalloc 128
	.seh_endprologue
	movq	%r8, %r15
	movq	%rdx, %rdi
	movq	%rcx, 64(%rsp)
	movl	$0, 52(%rsp)
	movq	8(%rdx), %rsi
	decq	%rsi
	movq	$0, 112(%rsp)
	movq	%rsi, 120(%rsp)
	movq	$0, 56(%rsp)
	leaq	51(%rsp), %r14
	leaq	__strdata3729666940005219032_1(%rip), %r12
	leaq	80(%rsp), %r13
	jmp	.LBB33_1
	.p2align	4, 0x90
.LBB33_6:                               # %ifExit2
                                        #   in Loop: Header=BB33_1 Depth=1
	incq	56(%rsp)
.LBB33_1:                               # %forCond
                                        # =>This Inner Loop Header: Depth=1
	movq	56(%rsp), %rax
	movq	%rax, 72(%rsp)
	cmpq	%rsi, %rax
	jg	.LBB33_7
# %bb.2:                                # %forEnter
                                        #   in Loop: Header=BB33_1 Depth=1
	movq	(%rdi), %rax
	movq	72(%rsp), %rcx
	movzbl	(%rax,%rcx), %eax
	movb	%al, 51(%rsp)
	cmpb	$37, %al
	je	.LBB33_4
# %bb.3:                                # %ifThen
                                        #   in Loop: Header=BB33_1 Depth=1
	movq	64(%rsp), %rcx
	movl	$1, %r8d
	movq	%r14, %rdx
	callq	std_stringbuilder_s_StringBuilder_appendBytes
	incq	56(%rsp)
	jmp	.LBB33_1
	.p2align	4, 0x90
.LBB33_4:                               # %ifElse
                                        #   in Loop: Header=BB33_1 Depth=1
	movslq	52(%rsp), %rax
	cmpq	(%r15), %rax
	jge	.LBB33_6
# %bb.5:                                # %ifThen1
                                        #   in Loop: Header=BB33_1 Depth=1
	movq	64(%rsp), %rbx
	movslq	52(%rsp), %r8
	movq	(%r15), %rdx
	movq	8(%r15), %rcx
	movq	%r12, 80(%rsp)
	movq	$72, 88(%rsp)
	movq	$32, 96(%rsp)
	movq	$40, 104(%rsp)
	movq	%r13, 32(%rsp)
	movl	$16, %r9d
	callq	__runtime_arrayGet
	movq	%rbx, %rcx
	movq	%rax, %rdx
	callq	std_stringbuilder_s_StringBuilder_appendAny
	incl	52(%rsp)
	jmp	.LBB33_6
.LBB33_7:                               # %forExit
	addq	$128, %rsp
	popq	%rbx
	popq	%rdi
	popq	%rsi
	popq	%r12
	popq	%r13
	popq	%r14
	popq	%r15
	retq
	.seh_endproc
                                        # -- End function
	.def	std_stringbuilder_s_StringBuilder_appendAny;
	.scl	2;
	.type	32;
	.endef
	.globl	std_stringbuilder_s_StringBuilder_appendAny # -- Begin function std_stringbuilder_s_StringBuilder_appendAny
	.p2align	4, 0x90
std_stringbuilder_s_StringBuilder_appendAny: # @std_stringbuilder_s_StringBuilder_appendAny
.seh_proc std_stringbuilder_s_StringBuilder_appendAny
# %bb.0:                                # %entry
	pushq	%r15
	.seh_pushreg %r15
	pushq	%r14
	.seh_pushreg %r14
	pushq	%r13
	.seh_pushreg %r13
	pushq	%r12
	.seh_pushreg %r12
	pushq	%rsi
	.seh_pushreg %rsi
	pushq	%rdi
	.seh_pushreg %rdi
	pushq	%rbp
	.seh_pushreg %rbp
	pushq	%rbx
	.seh_pushreg %rbx
	subq	$1384, %rsp                     # imm = 0x568
	.seh_stackalloc 1384
	.seh_endprologue
	movq	%rcx, 56(%rsp)
	cmpq	$0, (%rdx)
	je	.LBB34_65
# %bb.1:                                # %ifExit
	movq	%rdx, %rsi
	movq	(%rdx), %rax
	movq	40(%rax), %rax
	movq	%rax, 240(%rsp)
	testq	%rax, %rax
	je	.LBB34_4
# %bb.2:                                # %ifThen2
	movq	8(%rsi), %rdx
	movq	240(%rsp), %rax
	movq	%rax, 1120(%rsp)
	leaq	568(%rsp), %rcx
	callq	*%rax
	movq	584(%rsp), %rax
	movq	%rax, 1144(%rsp)
	movq	568(%rsp), %rcx
	movq	576(%rsp), %rdx
	movq	%rdx, 1136(%rsp)
	movq	%rcx, 1128(%rsp)
	movq	%rcx, 224(%rsp)
	movq	%rdx, 232(%rsp)
	movb	%al, 71(%rsp)
	movq	56(%rsp), %rcx
	leaq	ArrayViewEmpty(%rip), %r8
	leaq	224(%rsp), %rdx
	callq	std_stringbuilder_s_StringBuilder_append
	cmpb	$1, 71(%rsp)
	jne	.LBB34_65
# %bb.3:                                # %ifThen3
	movq	224(%rsp), %rcx
	callq	free
	jmp	.LBB34_65
.LBB34_4:                               # %ifExit5
	movq	(%rsi), %rax
	movl	(%rax), %eax
	movl	%eax, 64(%rsp)
	cmpl	$14, %eax
	jne	.LBB34_6
# %bb.5:                                # %matchArm
	movq	(%rsi), %rax
	movq	8(%rax), %rax
	movq	16(%rax), %rax
	movq	%rax, 1104(%rsp)
	movq	8(%rsi), %rcx
	movq	%rcx, 1112(%rsp)
	movq	%rax, 528(%rsp)
	movq	%rcx, 536(%rsp)
	movq	56(%rsp), %rcx
	leaq	528(%rsp), %rdx
	callq	std_stringbuilder_s_StringBuilder_appendAny
	jmp	.LBB34_65
.LBB34_6:                               # %matchCond
	cmpl	$0, 64(%rsp)
	je	.LBB34_7
# %bb.17:                               # %matchCond21
	cmpl	$1, 64(%rsp)
	je	.LBB34_18
.LBB34_24:                              # %matchCond31
	cmpl	$2, 64(%rsp)
	jne	.LBB34_26
.LBB34_25:                              # %matchArm33
	movq	56(%rsp), %rcx
	movq	8(%rsi), %rax
	movq	(%rax), %rdx
	movq	8(%rax), %rax
	movq	%rdx, 512(%rsp)
	movq	%rax, 520(%rsp)
	leaq	512(%rsp), %rdx
	callq	std_stringbuilder_s_StringBuilder_appendStr
	jmp	.LBB34_65
.LBB34_7:                               # %matchArm8
	movq	$0, 72(%rsp)
	movq	(%rsi), %rax
	movq	16(%rax), %rax
	movq	%rax, 120(%rsp)
	cmpq	$1, %rax
	jne	.LBB34_9
# %bb.8:                                # %matchArm11
	movq	8(%rsi), %rax
	movsbq	(%rax), %rax
	jmp	.LBB34_15
.LBB34_9:                               # %matchCond12
	cmpq	$2, 120(%rsp)
	jne	.LBB34_11
# %bb.10:                               # %matchArm14
	movq	8(%rsi), %rax
	movswq	(%rax), %rax
	jmp	.LBB34_15
.LBB34_11:                              # %matchCond15
	cmpq	$4, 120(%rsp)
	jne	.LBB34_13
# %bb.12:                               # %matchArm17
	movq	8(%rsi), %rax
	movslq	(%rax), %rax
	jmp	.LBB34_15
.LBB34_13:                              # %matchCond18
	cmpq	$8, 120(%rsp)
	jne	.LBB34_16
# %bb.14:                               # %matchArm20
	movq	8(%rsi), %rax
	movq	(%rax), %rax
.LBB34_15:                              # %matchExit
	movq	%rax, 72(%rsp)
.LBB34_16:                              # %matchExit
	movq	72(%rsp), %rdx
	movq	%rdx, 1096(%rsp)
	movq	56(%rsp), %rcx
	callq	std_stringbuilder_s_StringBuilder_appendInt
	cmpl	$1, 64(%rsp)
	jne	.LBB34_24
.LBB34_18:                              # %matchArm23
	movq	$0, 788(%rsp)
	movq	$0, 844(%rsp)
	movq	$0, 836(%rsp)
	movq	$0, 828(%rsp)
	movq	$0, 820(%rsp)
	movq	$0, 812(%rsp)
	movq	$0, 804(%rsp)
	movq	$0, 796(%rsp)
	movl	$0, 884(%rsp)
	movq	$0, 876(%rsp)
	movq	$0, 868(%rsp)
	movq	$0, 860(%rsp)
	movq	$0, 852(%rsp)
	movb	$0, 788(%rsp)
	leaq	1252(%rsp), %rdi
	leaq	788(%rsp), %rdx
	movl	$100, %r8d
	movq	%rdi, %rcx
	callq	memcpy
	movq	$100, 1072(%rsp)
	movq	%rdi, 1080(%rsp)
	movq	$1, 1088(%rsp)
	movq	%rdi, 208(%rsp)
	movq	$100, 200(%rsp)
	movq	$1, 216(%rsp)
	movq	$0, 112(%rsp)
	movq	(%rsi), %rax
	movq	16(%rax), %rax
	movq	%rax, 160(%rsp)
	cmpq	$4, 160(%rsp)
	jne	.LBB34_20
# %bb.19:                               # %matchArm26
	movq	8(%rsi), %rax
	movss	(%rax), %xmm0                   # xmm0 = mem[0],zero,zero,zero
	cvtss2sd	%xmm0, %xmm0
	jmp	.LBB34_22
.LBB34_20:                              # %matchCond27
	cmpq	$8, 160(%rsp)
	jne	.LBB34_23
# %bb.21:                               # %matchArm29
	movq	8(%rsi), %rax
	movsd	(%rax), %xmm0                   # xmm0 = mem[0],zero
.LBB34_22:                              # %matchExit30
	movsd	%xmm0, 112(%rsp)
.LBB34_23:                              # %matchExit30
	movq	112(%rsp), %rax
	movq	%rax, 192(%rsp)
	movq	208(%rsp), %rcx
	leaq	__strdata6909667221354269658_1(%rip), %r8
	movq	%r8, 1056(%rsp)
	movq	$5, 1064(%rsp)
	movq	192(%rsp), %xmm3                # xmm3 = mem[0],zero
	movl	$100, %edx
	movq	%xmm3, %r9
	callq	_snprintf
	movq	208(%rsp), %rcx
	callq	strlen
	movq	%rax, 1048(%rsp)
	movq	56(%rsp), %rcx
	movq	208(%rsp), %rdx
	movq	%rax, %r8
	callq	std_stringbuilder_s_StringBuilder_appendBytes
	cmpl	$2, 64(%rsp)
	je	.LBB34_25
.LBB34_26:                              # %matchCond34
	cmpl	$3, 64(%rsp)
	jne	.LBB34_28
# %bb.27:                               # %matchArm36
	movq	56(%rsp), %rcx
	movq	8(%rsi), %rax
	movb	(%rax), %dl
	callq	std_stringbuilder_s_StringBuilder_appendBool
	jmp	.LBB34_65
.LBB34_28:                              # %matchCond37
	cmpl	$4, 64(%rsp)
	je	.LBB34_29
# %bb.38:                               # %matchCond52
	cmpl	$15, 64(%rsp)
	je	.LBB34_39
.LBB34_45:                              # %matchCond71
	cmpl	$6, 64(%rsp)
	je	.LBB34_46
.LBB34_52:                              # %matchCond89
	cmpl	$8, 64(%rsp)
	jne	.LBB34_54
.LBB34_53:                              # %matchArm91
	movq	(%rsi), %rax
	movq	8(%rsi), %rcx
	movq	8(%rax), %rax
	movq	48(%rax), %rax
	movq	(%rcx,%rax), %r8
	movq	%r8, 992(%rsp)
	movq	(%rsi), %rax
	movq	8(%rsi), %rcx
	movq	8(%rax), %rax
	movq	56(%rax), %rax
	movq	(%rcx,%rax), %rax
	movq	%rax, 984(%rsp)
	movq	(%rsi), %rax
	movq	8(%rax), %rax
	movq	16(%rax), %rdx
	movq	24(%rax), %rcx
	leaq	__strdata3729666940005219032_1(%rip), %rax
	movq	%rax, 624(%rsp)
	movq	$72, 632(%rsp)
	movq	$202, 640(%rsp)
	movq	$32, 648(%rsp)
	leaq	624(%rsp), %rax
	movq	%rax, 32(%rsp)
	movl	$24, %r9d
	callq	__runtime_arrayGet
	movq	16(%rax), %rax
	movq	%rax, 968(%rsp)
	movq	8(%rsi), %rcx
	movq	%rcx, 976(%rsp)
	movq	%rcx, 408(%rsp)
	movq	%rax, 400(%rsp)
	movq	56(%rsp), %rcx
	leaq	400(%rsp), %rdx
	callq	std_stringbuilder_s_StringBuilder_appendAny
	jmp	.LBB34_65
.LBB34_29:                              # %matchArm39
	movb	$91, 53(%rsp)
	movq	56(%rsp), %rcx
	leaq	53(%rsp), %rdx
	movl	$1, %r8d
	callq	std_stringbuilder_s_StringBuilder_appendBytes
	movq	$0, 104(%rsp)
	movq	$0, 96(%rsp)
	movq	(%rsi), %rax
	movq	8(%rax), %rax
	cmpb	$1, (%rax)
	jne	.LBB34_31
# %bb.30:                               # %ifThen41
	movq	8(%rsi), %rax
	movq	8(%rax), %rax
	movq	%rax, 104(%rsp)
	movq	8(%rsi), %rax
	movq	(%rax), %rax
	jmp	.LBB34_32
.LBB34_31:                              # %ifElse
	movq	8(%rsi), %rax
	movq	%rax, 104(%rsp)
	movq	(%rsi), %rax
	movq	8(%rax), %rax
	movq	16(%rax), %rax
.LBB34_32:                              # %ifExit43
	movq	%rax, 96(%rsp)
	movq	96(%rsp), %rbx
	movq	%rbx, 184(%rsp)
	decq	%rbx
	movq	$0, 1032(%rsp)
	movq	%rbx, 1040(%rsp)
	movq	$0, 152(%rsp)
	leaq	496(%rsp), %rdi
	leaq	53(%rsp), %r14
	jmp	.LBB34_33
	.p2align	4, 0x90
.LBB34_36:                              # %ifExit51
                                        #   in Loop: Header=BB34_33 Depth=1
	incq	152(%rsp)
.LBB34_33:                              # %forCond
                                        # =>This Inner Loop Header: Depth=1
	movq	152(%rsp), %rax
	movq	%rax, 144(%rsp)
	cmpq	%rbx, %rax
	jg	.LBB34_37
# %bb.34:                               # %forEnter
                                        #   in Loop: Header=BB34_33 Depth=1
	movq	(%rsi), %rax
	movq	8(%rax), %rax
	movq	8(%rax), %rax
	movq	%rax, 1016(%rsp)
	movq	(%rsi), %rcx
	movq	8(%rcx), %rcx
	movq	8(%rcx), %rcx
	movq	144(%rsp), %rdx
	imulq	16(%rcx), %rdx
	addq	104(%rsp), %rdx
	movq	%rdx, 1024(%rsp)
	movq	%rax, 496(%rsp)
	movq	%rdx, 504(%rsp)
	movq	56(%rsp), %rcx
	movq	%rdi, %rdx
	callq	std_stringbuilder_s_StringBuilder_appendAny
	movq	184(%rsp), %rax
	decq	%rax
	cmpq	%rax, 144(%rsp)
	je	.LBB34_36
# %bb.35:                               # %ifThen50
                                        #   in Loop: Header=BB34_33 Depth=1
	movb	$44, 53(%rsp)
	movq	56(%rsp), %rcx
	movl	$1, %r8d
	movq	%r14, %rdx
	callq	std_stringbuilder_s_StringBuilder_appendBytes
	jmp	.LBB34_36
.LBB34_37:                              # %forExit
	movb	$93, 53(%rsp)
	movq	56(%rsp), %rcx
	leaq	53(%rsp), %rdx
	movl	$1, %r8d
	callq	std_stringbuilder_s_StringBuilder_appendBytes
	cmpl	$15, 64(%rsp)
	jne	.LBB34_45
.LBB34_39:                              # %matchArm54
	movb	$40, 55(%rsp)
	movq	56(%rsp), %rcx
	leaq	55(%rsp), %r14
	movl	$1, %r8d
	movq	%r14, %rdx
	callq	std_stringbuilder_s_StringBuilder_appendBytes
	movq	(%rsi), %rax
	movq	8(%rax), %rdi
	movq	(%rdi), %rbx
	movq	$0, 80(%rsp)
	leaq	__strdata3729666940005219032_1(%rip), %r12
	leaq	656(%rsp), %r13
	leaq	480(%rsp), %r15
	jmp	.LBB34_40
	.p2align	4, 0x90
.LBB34_43:                              # %ifExit68
                                        #   in Loop: Header=BB34_40 Depth=1
	incq	80(%rsp)
.LBB34_40:                              # %forCond59
                                        # =>This Inner Loop Header: Depth=1
	movq	8(%rdi), %rax
	movq	80(%rsp), %rcx
	movq	(%rax,%rcx,8), %rax
	movq	%rax, 176(%rsp)
	cmpq	%rbx, %rcx
	jge	.LBB34_44
# %bb.41:                               # %forEnter60
                                        #   in Loop: Header=BB34_40 Depth=1
	movq	176(%rsp), %rax
	movq	%rax, 464(%rsp)
	movq	(%rsi), %rax
	movq	8(%rsi), %rbp
	movq	8(%rax), %rax
	movq	80(%rsp), %r8
	movq	24(%rax), %rdx
	movq	32(%rax), %rcx
	movq	%r12, 656(%rsp)
	movq	$45, 680(%rsp)
	movq	$157, 672(%rsp)
	movq	$72, 664(%rsp)
	movq	%r13, 32(%rsp)
	movl	$8, %r9d
	callq	__runtime_arrayGet
	addq	(%rax), %rbp
	movq	%rbp, 472(%rsp)
	movq	%rbp, 488(%rsp)
	movq	464(%rsp), %rax
	movq	%rax, 480(%rsp)
	movq	56(%rsp), %rcx
	movq	%r15, %rdx
	callq	std_stringbuilder_s_StringBuilder_appendAny
	movq	(%rsi), %rax
	movq	8(%rax), %rax
	movq	(%rax), %rax
	decq	%rax
	cmpq	%rax, 80(%rsp)
	je	.LBB34_43
# %bb.42:                               # %ifThen67
                                        #   in Loop: Header=BB34_40 Depth=1
	movb	$44, 55(%rsp)
	movq	56(%rsp), %rcx
	movl	$1, %r8d
	movq	%r14, %rdx
	callq	std_stringbuilder_s_StringBuilder_appendBytes
	jmp	.LBB34_43
.LBB34_44:                              # %forExit70
	movb	$41, 55(%rsp)
	movq	56(%rsp), %rcx
	leaq	55(%rsp), %rdx
	movl	$1, %r8d
	callq	std_stringbuilder_s_StringBuilder_appendBytes
	cmpl	$6, 64(%rsp)
	jne	.LBB34_52
.LBB34_46:                              # %matchArm73
	movb	$123, 54(%rsp)
	movq	56(%rsp), %rcx
	leaq	54(%rsp), %r14
	movl	$1, %r8d
	movq	%r14, %rdx
	callq	std_stringbuilder_s_StringBuilder_appendBytes
	movq	(%rsi), %rax
	movq	8(%rax), %r13
	movq	16(%r13), %r12
	movq	$0, 88(%rsp)
	leaq	416(%rsp), %r15
	jmp	.LBB34_47
	.p2align	4, 0x90
.LBB34_50:                              # %ifExit86
                                        #   in Loop: Header=BB34_47 Depth=1
	incq	88(%rsp)
.LBB34_47:                              # %forCond78
                                        # =>This Inner Loop Header: Depth=1
	movq	24(%r13), %rax
	movq	88(%rsp), %rcx
	movq	%rcx, %rdx
	shlq	$5, %rdx
	movq	24(%rax,%rdx), %rbp
	movq	16(%rax,%rdx), %rbx
	movq	(%rax,%rdx), %rdi
	movq	8(%rax,%rdx), %rax
	movq	%rdi, 432(%rsp)
	movq	%rax, 440(%rsp)
	movq	%rbx, 448(%rsp)
	movq	%rbp, 456(%rsp)
	cmpq	%r12, %rcx
	jge	.LBB34_51
# %bb.48:                               # %forEnter79
                                        #   in Loop: Header=BB34_47 Depth=1
	movq	448(%rsp), %rax
	movq	%rax, 1000(%rsp)
	movq	8(%rsi), %rcx
	addq	456(%rsp), %rcx
	movq	%rcx, 1008(%rsp)
	movq	%rax, 416(%rsp)
	movq	%rcx, 424(%rsp)
	movq	56(%rsp), %rcx
	movq	%r15, %rdx
	callq	std_stringbuilder_s_StringBuilder_appendAny
	movq	(%rsi), %rax
	movq	8(%rax), %rax
	movq	16(%rax), %rax
	decq	%rax
	cmpq	%rax, 88(%rsp)
	je	.LBB34_50
# %bb.49:                               # %ifThen85
                                        #   in Loop: Header=BB34_47 Depth=1
	movb	$44, 54(%rsp)
	movq	56(%rsp), %rcx
	movl	$1, %r8d
	movq	%r14, %rdx
	callq	std_stringbuilder_s_StringBuilder_appendBytes
	jmp	.LBB34_50
.LBB34_51:                              # %forExit88
	movb	$125, 54(%rsp)
	movq	56(%rsp), %rcx
	leaq	54(%rsp), %rdx
	movl	$1, %r8d
	callq	std_stringbuilder_s_StringBuilder_appendBytes
	cmpl	$8, 64(%rsp)
	je	.LBB34_53
.LBB34_54:                              # %matchCond99
	cmpl	$5, 64(%rsp)
	jne	.LBB34_59
# %bb.55:                               # %matchArm101
	movq	8(%rsi), %rax
	movl	(%rax), %eax
	movl	%eax, 132(%rsp)
	movq	(%rsi), %rax
	movq	8(%rax), %r9
	movq	16(%r9), %r8
	movq	$0, 136(%rsp)
.LBB34_56:                              # %forCond105
                                        # =>This Inner Loop Header: Depth=1
	movq	24(%r9), %rdx
	movq	136(%rsp), %rbx
	movq	%rbx, %rbp
	shlq	$5, %rbp
	movl	24(%rdx,%rbp), %edi
	movq	16(%rdx,%rbp), %rcx
	movq	(%rdx,%rbp), %rax
	movq	8(%rdx,%rbp), %rdx
	movq	%rax, 280(%rsp)
	movq	%rdx, 288(%rsp)
	movq	%rcx, 296(%rsp)
	movl	%edi, 304(%rsp)
	cmpq	%r8, %rbx
	jge	.LBB34_59
# %bb.57:                               # %forEnter106
                                        #   in Loop: Header=BB34_56 Depth=1
	movl	304(%rsp), %eax
	cmpl	132(%rsp), %eax
	je	.LBB34_58
# %bb.66:                               # %ifExit117
                                        #   in Loop: Header=BB34_56 Depth=1
	incq	136(%rsp)
	jmp	.LBB34_56
.LBB34_58:                              # %ifThen108
	movq	56(%rsp), %rcx
	leaq	__strdata15684038694889407365_1(%rip), %rax
	movq	%rax, 384(%rsp)
	movq	$3, 392(%rsp)
	movq	(%rsi), %rax
	movq	24(%rax), %rdx
	movq	32(%rax), %rax
	movq	%rax, 376(%rsp)
	movq	%rdx, 368(%rsp)
	leaq	368(%rsp), %rax
	movq	%rax, 960(%rsp)
	leaq	__typeTable+1536(%rip), %rdx
	movq	%rdx, 952(%rsp)
	movq	280(%rsp), %rbp
	movq	288(%rsp), %rbx
	movq	%rbx, 360(%rsp)
	movq	%rbp, 352(%rsp)
	leaq	352(%rsp), %rbp
	movq	%rbp, 944(%rsp)
	movq	%rdx, 936(%rsp)
	movq	%rdx, 248(%rsp)
	movq	%rax, 256(%rsp)
	movq	%rdx, 264(%rsp)
	movq	%rbp, 272(%rsp)
	movq	%rbp, 616(%rsp)
	movq	264(%rsp), %rax
	movq	%rax, 608(%rsp)
	movq	248(%rsp), %rax
	movq	256(%rsp), %rdx
	movq	%rdx, 600(%rsp)
	movq	%rax, 592(%rsp)
	movq	$2, 544(%rsp)
	leaq	592(%rsp), %rax
	movq	%rax, 552(%rsp)
	movq	$16, 560(%rsp)
	leaq	384(%rsp), %rdx
	leaq	544(%rsp), %r8
	callq	std_stringbuilder_s_StringBuilder_append
.LBB34_59:                              # %matchCond120
	cmpl	$9, 64(%rsp)
	jne	.LBB34_63
# %bb.60:                               # %matchArm122
	movq	8(%rsi), %rax
	movq	%rax, 168(%rsp)
	cmpq	$0, (%rax)
	je	.LBB34_61
# %bb.62:                               # %ifElse126
	movq	$0, 688(%rsp)
	movq	$0, 744(%rsp)
	movq	$0, 736(%rsp)
	movq	$0, 728(%rsp)
	movq	$0, 720(%rsp)
	movq	$0, 712(%rsp)
	movq	$0, 704(%rsp)
	movq	$0, 696(%rsp)
	movl	$0, 784(%rsp)
	movq	$0, 776(%rsp)
	movq	$0, 768(%rsp)
	movq	$0, 760(%rsp)
	movq	$0, 752(%rsp)
	movb	$0, 688(%rsp)
	leaq	1152(%rsp), %rdi
	leaq	688(%rsp), %rdx
	movl	$100, %r8d
	movq	%rdi, %rcx
	callq	memcpy
	movq	$100, 912(%rsp)
	movq	%rdi, 920(%rsp)
	movq	$1, 928(%rsp)
	movq	%rdi, 320(%rsp)
	movq	$100, 312(%rsp)
	movq	$1, 328(%rsp)
	leaq	__strdata590713754634395070_5(%rip), %r8
	movq	%r8, 896(%rsp)
	movq	$2, 904(%rsp)
	movq	168(%rsp), %rax
	movq	(%rax), %r9
	movl	$100, %edx
	movq	%rdi, %rcx
	callq	_snprintf
	movq	320(%rsp), %rcx
	callq	strlen
	movq	%rax, 888(%rsp)
	movq	56(%rsp), %rcx
	movq	320(%rsp), %rdx
	movq	%rax, %r8
	callq	std_stringbuilder_s_StringBuilder_appendBytes
	jmp	.LBB34_63
.LBB34_61:                              # %ifThen124
	movq	56(%rsp), %rcx
	leaq	__strdata13728408170730661446_1(%rip), %rax
	movq	%rax, 336(%rsp)
	movq	$4, 344(%rsp)
	leaq	336(%rsp), %rdx
	callq	std_stringbuilder_s_StringBuilder_appendStr
.LBB34_63:                              # %matchCond134
	cmpl	$10, 64(%rsp)
	jne	.LBB34_65
# %bb.64:                               # %matchArm136
	movq	56(%rsp), %rcx
	movq	(%rsi), %rdx
	addq	$24, %rdx
	leaq	ArrayViewEmpty(%rip), %r8
	callq	std_stringbuilder_s_StringBuilder_append
.LBB34_65:                              # %ifThen
	nop
	addq	$1384, %rsp                     # imm = 0x568
	popq	%rbx
	popq	%rbp
	popq	%rdi
	popq	%rsi
	popq	%r12
	popq	%r13
	popq	%r14
	popq	%r15
	retq
	.seh_endproc
                                        # -- End function
	.def	std_stringbuilder_s_StringBuilder_appendBytes;
	.scl	2;
	.type	32;
	.endef
	.globl	__real@3fa66666                 # -- Begin function std_stringbuilder_s_StringBuilder_appendBytes
	.section	.rdata,"dr",discard,__real@3fa66666
	.p2align	2
__real@3fa66666:
	.long	0x3fa66666                      # float 1.29999995
	.text
	.globl	std_stringbuilder_s_StringBuilder_appendBytes
	.p2align	4, 0x90
std_stringbuilder_s_StringBuilder_appendBytes: # @std_stringbuilder_s_StringBuilder_appendBytes
.seh_proc std_stringbuilder_s_StringBuilder_appendBytes
# %bb.0:                                # %entry
	pushq	%rsi
	.seh_pushreg %rsi
	subq	$96, %rsp
	.seh_stackalloc 96
	.seh_endprologue
	movq	%rcx, 32(%rsp)
	movq	%rdx, 72(%rsp)
	movq	%r8, 40(%rsp)
	cmpq	$0, (%rcx)
	jne	.LBB35_2
# %bb.1:                                # %ifThen
	movq	32(%rsp), %rcx
	callq	std_stringbuilder_initStringBuilder
.LBB35_2:                               # %ifExit
	movq	32(%rsp), %rax
	movq	8(%rax), %rcx
	addq	40(%rsp), %rcx
	cmpq	%rcx, 16(%rax)
	jge	.LBB35_4
# %bb.3:                                # %ifThen3
	movq	32(%rsp), %rax
	movq	16(%rax), %rcx
	addq	24(%rax), %rcx
	addq	40(%rsp), %rcx
	movq	%rcx, 56(%rsp)
	movq	24(%rax), %rcx
	cvtsi2ss	%rcx, %xmm0
	mulss	__real@3fa66666(%rip), %xmm0
	cvttss2si	%xmm0, %rdx
	addq	%rcx, %rdx
	movq	%rdx, 24(%rax)
	movq	32(%rsp), %rsi
	movq	(%rsi), %rcx
	movq	56(%rsp), %rdx
	incq	%rdx
	callq	realloc
	movq	%rax, (%rsi)
	movq	32(%rsp), %rax
	movq	56(%rsp), %rcx
	movq	%rcx, 16(%rax)
.LBB35_4:                               # %ifExit8
	movq	40(%rsp), %r8
	decq	%r8
	movq	$0, 80(%rsp)
	movq	%r8, 88(%rsp)
	movq	$0, 48(%rsp)
	.p2align	4, 0x90
.LBB35_5:                               # %forCond
                                        # =>This Inner Loop Header: Depth=1
	movq	48(%rsp), %rcx
	movq	%rcx, 64(%rsp)
	cmpq	%r8, %rcx
	jg	.LBB35_7
# %bb.6:                                # %forEnter
                                        #   in Loop: Header=BB35_5 Depth=1
	movq	32(%rsp), %rcx
	movq	64(%rsp), %rdx
	movq	8(%rcx), %rsi
	addq	%rdx, %rsi
	movq	(%rcx), %rcx
	movq	72(%rsp), %rax
	movzbl	(%rax,%rdx), %eax
	movb	%al, (%rcx,%rsi)
	incq	48(%rsp)
	jmp	.LBB35_5
.LBB35_7:                               # %forExit
	movq	32(%rsp), %rax
	movq	40(%rsp), %rcx
	addq	%rcx, 8(%rax)
	movq	32(%rsp), %rax
	movq	(%rax), %rcx
	movq	8(%rax), %rax
	movb	$0, (%rcx,%rax)
	addq	$96, %rsp
	popq	%rsi
	retq
	.seh_endproc
                                        # -- End function
	.def	std_stringbuilder_s_StringBuilder_appendByte;
	.scl	2;
	.type	32;
	.endef
	.globl	std_stringbuilder_s_StringBuilder_appendByte # -- Begin function std_stringbuilder_s_StringBuilder_appendByte
	.p2align	4, 0x90
std_stringbuilder_s_StringBuilder_appendByte: # @std_stringbuilder_s_StringBuilder_appendByte
.seh_proc std_stringbuilder_s_StringBuilder_appendByte
# %bb.0:                                # %entry
	subq	$56, %rsp
	.seh_stackalloc 56
	.seh_endprologue
	movq	%rcx, 48(%rsp)
	movb	%dl, 47(%rsp)
	leaq	47(%rsp), %rdx
	movl	$1, %r8d
	callq	std_stringbuilder_s_StringBuilder_appendBytes
	nop
	addq	$56, %rsp
	retq
	.seh_endproc
                                        # -- End function
	.def	std_stringbuilder_s_StringBuilder_appendStr;
	.scl	2;
	.type	32;
	.endef
	.globl	std_stringbuilder_s_StringBuilder_appendStr # -- Begin function std_stringbuilder_s_StringBuilder_appendStr
	.p2align	4, 0x90
std_stringbuilder_s_StringBuilder_appendStr: # @std_stringbuilder_s_StringBuilder_appendStr
.seh_proc std_stringbuilder_s_StringBuilder_appendStr
# %bb.0:                                # %entry
	subq	$72, %rsp
	.seh_stackalloc 72
	.seh_endprologue
	movq	%rcx, 32(%rsp)
	cmpq	$0, (%rdx)
	je	.LBB37_1
# %bb.2:                                # %ifElse
	movq	32(%rsp), %rcx
	movq	(%rdx), %rax
	movq	8(%rdx), %r8
	movq	%rax, %rdx
	jmp	.LBB37_3
.LBB37_1:                               # %ifThen
	movq	32(%rsp), %rcx
	leaq	__strdata13728408170730661446_1(%rip), %rdx
	movq	%rdx, 56(%rsp)
	movq	$4, 64(%rsp)
	movq	%rdx, 40(%rsp)
	movq	$4, 48(%rsp)
	movl	$4, %r8d
.LBB37_3:                               # %ifExit
	callq	std_stringbuilder_s_StringBuilder_appendBytes
	nop
	addq	$72, %rsp
	retq
	.seh_endproc
                                        # -- End function
	.def	std_stringbuilder_s_StringBuilder_appendInt;
	.scl	2;
	.type	32;
	.endef
	.globl	std_stringbuilder_s_StringBuilder_appendInt # -- Begin function std_stringbuilder_s_StringBuilder_appendInt
	.p2align	4, 0x90
std_stringbuilder_s_StringBuilder_appendInt: # @std_stringbuilder_s_StringBuilder_appendInt
.seh_proc std_stringbuilder_s_StringBuilder_appendInt
# %bb.0:                                # %entry
	pushq	%r14
	.seh_pushreg %r14
	pushq	%rsi
	.seh_pushreg %rsi
	pushq	%rdi
	.seh_pushreg %rdi
	pushq	%rbx
	.seh_pushreg %rbx
	subq	$200, %rsp
	.seh_stackalloc 200
	.seh_endprologue
	movq	%rcx, 64(%rsp)
	movq	%rdx, 48(%rsp)
	leaq	__strdata14118926064792308492_4(%rip), %rax
	movq	%rax, 184(%rsp)
	movq	$10, 192(%rsp)
	movq	%rax, 112(%rsp)
	movq	$10, 120(%rsp)
	movq	$0, 152(%rsp)
	movq	$0, 160(%rsp)
	movq	$0, 168(%rsp)
	movq	$500, 176(%rsp)                 # imm = 0x1F4
	movq	$0, 72(%rsp)
	movq	$0, 80(%rsp)
	movq	$0, 88(%rsp)
	movq	$500, 96(%rsp)                  # imm = 0x1F4
	movb	$0, 45(%rsp)
	testq	%rdx, %rdx
	jne	.LBB38_2
# %bb.1:                                # %ifThen
	movq	48(%rsp), %rdx
	leaq	112(%rsp), %rcx
	callq	INDEX_prelude_s_string_i64_
	movb	%al, 45(%rsp)
	leaq	72(%rsp), %rcx
	movl	%eax, %edx
	callq	std_stringbuilder_s_StringBuilder_appendByte
.LBB38_2:                               # %ifExit
	movb	$0, 46(%rsp)
	cmpq	$0, 48(%rsp)
	js	.LBB38_3
# %bb.4:                                # %ifElse
	movb	$0, 46(%rsp)
	jmp	.LBB38_5
.LBB38_3:                               # %ifThen2
	negq	48(%rsp)
	movb	$1, 46(%rsp)
.LBB38_5:                               # %ifExit3
	movb	46(%rsp), %al
	movb	%al, 47(%rsp)
	movabsq	$7378697629483820647, %rsi      # imm = 0x6666666666666667
	leaq	112(%rsp), %r14
	leaq	72(%rsp), %rbx
	cmpq	$0, 48(%rsp)
	je	.LBB38_8
	.p2align	4, 0x90
.LBB38_7:                               # %whileEnter
                                        # =>This Inner Loop Header: Depth=1
	movq	48(%rsp), %rdi
	movq	%rdi, %rax
	imulq	%rsi
	movq	%rdx, %rax
	shrq	$63, %rax
	sarq	$2, %rdx
	addq	%rax, %rdx
	addq	%rdx, %rdx
	leaq	(%rdx,%rdx,4), %rax
	subq	%rax, %rdi
	movq	%rdi, 144(%rsp)
	movq	%r14, %rcx
	movq	%rdi, %rdx
	callq	INDEX_prelude_s_string_i64_
	movb	%al, 45(%rsp)
	movq	%rbx, %rcx
	movl	%eax, %edx
	callq	std_stringbuilder_s_StringBuilder_appendByte
	movq	%rsi, %rax
	imulq	48(%rsp)
	movq	%rdx, %rax
	shrq	$63, %rax
	sarq	$2, %rdx
	addq	%rax, %rdx
	movq	%rdx, 48(%rsp)
	cmpq	$0, 48(%rsp)
	jne	.LBB38_7
.LBB38_8:                               # %whileExit
	cmpb	$1, 47(%rsp)
	jne	.LBB38_10
# %bb.9:                                # %ifThen5
	movb	$45, 45(%rsp)
	movq	64(%rsp), %rcx
	movb	$45, %dl
	callq	std_stringbuilder_s_StringBuilder_appendByte
.LBB38_10:                              # %ifExit6
	movq	80(%rsp), %rdi
	decq	%rdi
	movq	$0, 128(%rsp)
	movq	%rdi, 136(%rsp)
	movq	$0, 56(%rsp)
	leaq	72(%rsp), %rsi
	.p2align	4, 0x90
.LBB38_11:                              # %forCond
                                        # =>This Inner Loop Header: Depth=1
	movq	56(%rsp), %rax
	movq	%rax, 104(%rsp)
	cmpq	%rdi, %rax
	jg	.LBB38_13
# %bb.12:                               # %forEnter
                                        #   in Loop: Header=BB38_11 Depth=1
	movq	104(%rsp), %rdx
	notq	%rdx
	addq	80(%rsp), %rdx
	movq	%rsi, %rcx
	callq	INDEX_std_stringbuilder_s_StringBuilder_i64_
	movb	%al, 45(%rsp)
	movq	64(%rsp), %rcx
	movl	%eax, %edx
	callq	std_stringbuilder_s_StringBuilder_appendByte
	incq	56(%rsp)
	jmp	.LBB38_11
.LBB38_13:                              # %forExit
	leaq	72(%rsp), %rcx
	callq	std_stringbuilder_s_StringBuilder_free
	nop
	addq	$200, %rsp
	popq	%rbx
	popq	%rdi
	popq	%rsi
	popq	%r14
	retq
	.seh_endproc
                                        # -- End function
	.def	std_stringbuilder_s_StringBuilder_appendBool;
	.scl	2;
	.type	32;
	.endef
	.globl	std_stringbuilder_s_StringBuilder_appendBool # -- Begin function std_stringbuilder_s_StringBuilder_appendBool
	.p2align	4, 0x90
std_stringbuilder_s_StringBuilder_appendBool: # @std_stringbuilder_s_StringBuilder_appendBool
.seh_proc std_stringbuilder_s_StringBuilder_appendBool
# %bb.0:                                # %entry
	subq	$104, %rsp
	.seh_stackalloc 104
	.seh_endprologue
	movq	%rcx, 64(%rsp)
	movb	%dl, 47(%rsp)
	movq	$0, 48(%rsp)
	movq	$0, 56(%rsp)
	testb	%dl, %dl
	je	.LBB39_2
# %bb.1:                                # %ifThen
	leaq	__strdata10074334107457502401_2(%rip), %rax
	movq	%rax, 88(%rsp)
	movq	$4, 96(%rsp)
	movq	%rax, 48(%rsp)
	movq	$4, 56(%rsp)
	jmp	.LBB39_3
.LBB39_2:                               # %ifElse
	leaq	__strdata633831738828479914_3(%rip), %rax
	movq	%rax, 72(%rsp)
	movq	$5, 80(%rsp)
	movq	%rax, 48(%rsp)
	movq	$5, 56(%rsp)
.LBB39_3:                               # %ifExit
	movq	64(%rsp), %rcx
	leaq	ArrayViewEmpty(%rip), %r8
	leaq	48(%rsp), %rdx
	callq	std_stringbuilder_s_StringBuilder_append
	nop
	addq	$104, %rsp
	retq
	.seh_endproc
                                        # -- End function
	.def	std_stringbuilder_s_StringBuilder_reset;
	.scl	2;
	.type	32;
	.endef
	.globl	std_stringbuilder_s_StringBuilder_reset # -- Begin function std_stringbuilder_s_StringBuilder_reset
	.p2align	4, 0x90
std_stringbuilder_s_StringBuilder_reset: # @std_stringbuilder_s_StringBuilder_reset
.seh_proc std_stringbuilder_s_StringBuilder_reset
# %bb.0:                                # %entry
	pushq	%rax
	.seh_stackalloc 8
	.seh_endprologue
	movq	%rcx, (%rsp)
	movq	$0, 8(%rcx)
	popq	%rax
	retq
	.seh_endproc
                                        # -- End function
	.def	std_stringbuilder_s_StringBuilder_free;
	.scl	2;
	.type	32;
	.endef
	.globl	std_stringbuilder_s_StringBuilder_free # -- Begin function std_stringbuilder_s_StringBuilder_free
	.p2align	4, 0x90
std_stringbuilder_s_StringBuilder_free: # @std_stringbuilder_s_StringBuilder_free
.seh_proc std_stringbuilder_s_StringBuilder_free
# %bb.0:                                # %entry
	subq	$40, %rsp
	.seh_stackalloc 40
	.seh_endprologue
	movq	%rcx, 32(%rsp)
	movq	(%rcx), %rcx
	callq	free
	movq	32(%rsp), %rax
	movq	$0, (%rax)
	movq	32(%rsp), %rax
	movq	$0, 8(%rax)
	movq	32(%rsp), %rax
	movq	$0, 16(%rax)
	movq	32(%rsp), %rax
	movq	$1000, 24(%rax)                 # imm = 0x3E8
	addq	$40, %rsp
	retq
	.seh_endproc
                                        # -- End function
	.def	std_stringbuilder_s_StringBuilder_toString;
	.scl	2;
	.type	32;
	.endef
	.globl	std_stringbuilder_s_StringBuilder_toString # -- Begin function std_stringbuilder_s_StringBuilder_toString
	.p2align	4, 0x90
std_stringbuilder_s_StringBuilder_toString: # @std_stringbuilder_s_StringBuilder_toString
.seh_proc std_stringbuilder_s_StringBuilder_toString
# %bb.0:                                # %entry
	subq	$16, %rsp
	.seh_stackalloc 16
	.seh_endprologue
	movq	%rcx, %rax
	movq	(%rdx), %rcx
	movq	%rcx, (%rsp)
	movq	8(%rdx), %rdx
	movq	%rdx, 8(%rsp)
	movq	%rdx, 8(%rax)
	movq	%rcx, (%rax)
	addq	$16, %rsp
	retq
	.seh_endproc
                                        # -- End function
	.def	std_stringbuilder_initStringBuilder;
	.scl	2;
	.type	32;
	.endef
	.globl	std_stringbuilder_initStringBuilder # -- Begin function std_stringbuilder_initStringBuilder
	.p2align	4, 0x90
std_stringbuilder_initStringBuilder:    # @std_stringbuilder_initStringBuilder
.seh_proc std_stringbuilder_initStringBuilder
# %bb.0:                                # %entry
	pushq	%rsi
	.seh_pushreg %rsi
	subq	$48, %rsp
	.seh_stackalloc 48
	.seh_endprologue
	movq	%rcx, %rsi
	movq	%rcx, 40(%rsp)
	movq	24(%rcx), %rcx
	incq	%rcx
	callq	malloc
	movq	%rax, (%rsi)
	movq	40(%rsp), %rax
	movq	$0, 8(%rax)
	movq	40(%rsp), %rax
	movq	24(%rax), %rcx
	movq	%rcx, 16(%rax)
	addq	$48, %rsp
	popq	%rsi
	retq
	.seh_endproc
                                        # -- End function
	.def	main;
	.scl	2;
	.type	32;
	.endef
	.globl	main                            # -- Begin function main
	.p2align	4, 0x90
main:                                   # @main
.seh_proc main
# %bb.0:                                # %entry
	pushq	%rbp
	.seh_pushreg %rbp
	pushq	%r14
	.seh_pushreg %r14
	pushq	%rsi
	.seh_pushreg %rsi
	pushq	%rdi
	.seh_pushreg %rdi
	pushq	%rbx
	.seh_pushreg %rbx
	subq	$16, %rsp
	.seh_stackalloc 16
	leaq	16(%rsp), %rbp
	.seh_setframe %rbp, 16
	.seh_endprologue
	movq	%rdx, %rbx
	movq	%rcx, %r14
	shlq	$4, %rcx
	subq	$32, %rsp
	callq	malloc
	addq	$32, %rsp
	movq	%rax, %rsi
	movq	$0, -8(%rbp)
	cmpq	%r14, -8(%rbp)
	jge	.LBB44_3
	.p2align	4, 0x90
.LBB44_2:                               # %forEnter
                                        # =>This Inner Loop Header: Depth=1
	movq	-8(%rbp), %rdi
	movq	(%rbx,%rdi,8), %rcx
	shlq	$4, %rdi
	movq	%rcx, (%rsi,%rdi)
	subq	$32, %rsp
	callq	strlen
	addq	$32, %rsp
	movq	%rax, 8(%rsi,%rdi)
	incq	-8(%rbp)
	cmpq	%r14, -8(%rbp)
	jl	.LBB44_2
.LBB44_3:                               # %forExit
	movl	$32, %eax
	callq	__chkstk
	subq	%rax, %rsp
	movq	%rsp, %rax
	movq	%rsi, 8(%rax)
	movq	%r14, (%rax)
	movq	$16, 16(%rax)
	movl	$16, %eax
	callq	__chkstk
	subq	%rax, %rsp
	movq	%rsp, %rdi
	subq	$32, %rsp
	movq	%rdi, %rcx
	callq	std_io___openStdOut
	addq	$32, %rsp
	movq	(%rdi), %rax
	movq	8(%rdi), %rcx
	movq	%rcx, std_io_stdout+8(%rip)
	movq	%rax, std_io_stdout(%rip)
	movl	$16, %eax
	callq	__chkstk
	subq	%rax, %rsp
	movq	%rsp, %rdi
	subq	$32, %rsp
	movq	%rdi, %rcx
	callq	std_io___openStdIn
	addq	$32, %rsp
	movq	(%rdi), %rax
	movq	8(%rdi), %rcx
	movq	%rcx, std_io_stdin+8(%rip)
	movq	%rax, std_io_stdin(%rip)
	movl	$16, %eax
	callq	__chkstk
	subq	%rax, %rsp
	movq	%rsp, %rdi
	subq	$32, %rsp
	callq	global_main
	addq	$32, %rsp
	movq	$0, (%rdi)
	subq	$32, %rsp
	movq	%rsi, %rcx
	callq	free
	addq	$32, %rsp
	movq	(%rdi), %rax
	movq	%rbp, %rsp
	popq	%rbx
	popq	%rdi
	popq	%rsi
	popq	%r14
	popq	%rbp
	retq
	.seh_endproc
                                        # -- End function
	.section	.rdata,"dr"
	.globl	ArrayViewEmpty                  # @ArrayViewEmpty
	.p2align	3
ArrayViewEmpty:
	.zero	24

	.bss
	.globl	std_io_stdout                   # @std_io_stdout
	.p2align	3
std_io_stdout:
	.zero	16

	.globl	std_io_stdin                    # @std_io_stdin
	.p2align	3
std_io_stdin:
	.zero	16

	.data
	.globl	__namespaceTable                # @__namespaceTable
	.p2align	3
__namespaceTable:
	.quad	__strdata12154344244609556008_0
	.quad	7                               # 0x7
	.quad	2                               # 0x2
	.quad	__unnamed_1
	.quad	16                              # 0x10
	.quad	__strdata6536880765716580396_0
	.quad	6                               # 0x6
	.quad	1                               # 0x1
	.quad	__unnamed_2
	.quad	16                              # 0x10
	.quad	__strdata2055580414287477511_0
	.quad	4                               # 0x4
	.quad	1                               # 0x1
	.quad	__unnamed_3
	.quad	16                              # 0x10
	.quad	__strdata590632390773907555_0
	.quad	2                               # 0x2
	.zero	24
	.quad	__strdata17931190884842557978_0
	.quad	11                              # 0xb
	.quad	1                               # 0x1
	.quad	__unnamed_4
	.quad	16                              # 0x10
	.quad	__strdata6314963136226311032_0
	.quad	6                               # 0x6
	.quad	1                               # 0x1
	.quad	__unnamed_5
	.quad	16                              # 0x10
	.quad	__strdata3413646272969591373_0
	.quad	11                              # 0xb
	.quad	1                               # 0x1
	.quad	__unnamed_6
	.quad	16                              # 0x10
	.quad	__strdata14874658260041251297_0
	.quad	9                               # 0x9
	.quad	1                               # 0x1
	.quad	__unnamed_7
	.quad	16                              # 0x10
	.quad	__strdata15609384054371896564_0
	.quad	3                               # 0x3
	.zero	24
	.quad	__strdata6683274636743216908_0
	.quad	7                               # 0x7
	.quad	1                               # 0x1
	.quad	__unnamed_8
	.quad	16                              # 0x10
	.quad	__strdata5957045100754887228_1
	.quad	18                              # 0x12
	.quad	1                               # 0x1
	.quad	__unnamed_9
	.quad	16                              # 0x10

	.section	.rdata,"dr"
	.globl	__strdata12154344244609556008_0 # @__strdata12154344244609556008_0
	.p2align	3
__strdata12154344244609556008_0:
	.asciz	"prelude"

	.data
	.globl	__unnamed_1                     # @0
	.p2align	4
__unnamed_1:
	.quad	__strdata4769384459607827004_0
	.quad	62                              # 0x3e
	.quad	__strdata13738145760655681112_0
	.quad	58                              # 0x3a

	.section	.rdata,"dr"
	.globl	__strdata4769384459607827004_0  # @__strdata4769384459607827004_0
	.p2align	3
__strdata4769384459607827004_0:
	.asciz	"C:\\Users\\moizi\\OneDrive\\Programming\\Amp2_0\\modules\\prelude.amp"

	.globl	__strdata13738145760655681112_0 # @__strdata13738145760655681112_0
	.p2align	3
__strdata13738145760655681112_0:
	.asciz	"C:\\Users\\moizi\\OneDrive\\Programming\\Amp2_0\\modules\\mem.amp"

	.globl	__strdata6536880765716580396_0  # @__strdata6536880765716580396_0
	.p2align	3
__strdata6536880765716580396_0:
	.asciz	"global"

	.data
	.globl	__unnamed_2                     # @1
	.p2align	3
__unnamed_2:
	.quad	__strdata3233430748321314472_1
	.quad	51                              # 0x33

	.section	.rdata,"dr"
	.globl	__strdata3233430748321314472_1  # @__strdata3233430748321314472_1
	.p2align	3
__strdata3233430748321314472_1:
	.asciz	"C:\\Users\\moizi\\OneDrive\\Programming\\Amp2_0\\test.amp"

	.globl	__strdata2055580414287477511_0  # @__strdata2055580414287477511_0
	.p2align	3
__strdata2055580414287477511_0:
	.asciz	"cstd"

	.data
	.globl	__unnamed_3                     # @2
	.p2align	3
__unnamed_3:
	.quad	__strdata930970545526506695_0
	.quad	59                              # 0x3b

	.section	.rdata,"dr"
	.globl	__strdata930970545526506695_0   # @__strdata930970545526506695_0
	.p2align	3
__strdata930970545526506695_0:
	.asciz	"C:\\Users\\moizi\\OneDrive\\Programming\\Amp2_0\\modules\\cstd.amp"

	.globl	__strdata590632390773907555_0   # @__strdata590632390773907555_0
	.p2align	3
__strdata590632390773907555_0:
	.asciz	"os"

	.globl	__strdata17931190884842557978_0 # @__strdata17931190884842557978_0
	.p2align	3
__strdata17931190884842557978_0:
	.asciz	"os::windows"

	.data
	.globl	__unnamed_4                     # @4
	.p2align	3
__unnamed_4:
	.quad	__strdata8491721207530767623_1
	.quad	73                              # 0x49

	.section	.rdata,"dr"
	.globl	__strdata8491721207530767623_1  # @__strdata8491721207530767623_1
	.p2align	3
__strdata8491721207530767623_1:
	.asciz	"C:\\Users\\moizi\\OneDrive\\Programming\\Amp2_0\\modules\\os\\windows\\windows.amp"

	.globl	__strdata6314963136226311032_0  # @__strdata6314963136226311032_0
	.p2align	3
__strdata6314963136226311032_0:
	.asciz	"raylib"

	.data
	.globl	__unnamed_5                     # @5
	.p2align	3
__unnamed_5:
	.quad	__strdata10002770021412198457_0
	.quad	68                              # 0x44

	.section	.rdata,"dr"
	.globl	__strdata10002770021412198457_0 # @__strdata10002770021412198457_0
	.p2align	3
__strdata10002770021412198457_0:
	.asciz	"C:\\Users\\moizi\\OneDrive\\Programming\\Amp2_0\\modules\\raylib\\raylib.amp"

	.globl	__strdata3413646272969591373_0  # @__strdata3413646272969591373_0
	.p2align	3
__strdata3413646272969591373_0:
	.asciz	"raylib::gui"

	.data
	.globl	__unnamed_6                     # @6
	.p2align	3
__unnamed_6:
	.quad	__strdata15117550485966194669_0
	.quad	68                              # 0x44

	.section	.rdata,"dr"
	.globl	__strdata15117550485966194669_0 # @__strdata15117550485966194669_0
	.p2align	3
__strdata15117550485966194669_0:
	.asciz	"C:\\Users\\moizi\\OneDrive\\Programming\\Amp2_0\\modules\\raylib\\raygui.amp"

	.globl	__strdata14874658260041251297_0 # @__strdata14874658260041251297_0
	.p2align	3
__strdata14874658260041251297_0:
	.asciz	"__runtime"

	.data
	.globl	__unnamed_7                     # @7
	.p2align	3
__unnamed_7:
	.quad	__strdata14350348335828620043_0
	.quad	62                              # 0x3e

	.section	.rdata,"dr"
	.globl	__strdata14350348335828620043_0 # @__strdata14350348335828620043_0
	.p2align	3
__strdata14350348335828620043_0:
	.asciz	"C:\\Users\\moizi\\OneDrive\\Programming\\Amp2_0\\modules\\runtime.amp"

	.globl	__strdata15609384054371896564_0 # @__strdata15609384054371896564_0
	.p2align	3
__strdata15609384054371896564_0:
	.asciz	"std"

	.globl	__strdata6683274636743216908_0  # @__strdata6683274636743216908_0
	.p2align	3
__strdata6683274636743216908_0:
	.asciz	"std::io"

	.data
	.globl	__unnamed_8                     # @9
	.p2align	3
__unnamed_8:
	.quad	__strdata12812371896813751032_1
	.quad	61                              # 0x3d

	.section	.rdata,"dr"
	.globl	__strdata12812371896813751032_1 # @__strdata12812371896813751032_1
	.p2align	3
__strdata12812371896813751032_1:
	.asciz	"C:\\Users\\moizi\\OneDrive\\Programming\\Amp2_0\\modules\\std\\io.amp"

	.globl	__strdata5957045100754887228_1  # @__strdata5957045100754887228_1
	.p2align	3
__strdata5957045100754887228_1:
	.asciz	"std::stringbuilder"

	.data
	.globl	__unnamed_9                     # @10
	.p2align	3
__unnamed_9:
	.quad	__strdata3729666940005219032_1
	.quad	72                              # 0x48

	.section	.rdata,"dr"
	.globl	__strdata3729666940005219032_1  # @__strdata3729666940005219032_1
	.p2align	3
__strdata3729666940005219032_1:
	.asciz	"C:\\Users\\moizi\\OneDrive\\Programming\\Amp2_0\\modules\\std\\stringbuilder.amp"

	.data
	.globl	__typeTable                     # @__typeTable
	.p2align	3
__typeTable:
	.long	0                               # 0x0
	.zero	4
	.zero	8
	.quad	4                               # 0x4
	.quad	__strdata15619023472814530097_0
	.quad	3                               # 0x3
	.quad	0
	.long	0                               # 0x0
	.zero	4
	.zero	8
	.quad	1                               # 0x1
	.quad	__strdata590638987843676794_0
	.quad	2                               # 0x2
	.quad	0
	.long	0                               # 0x0
	.zero	4
	.zero	8
	.quad	2                               # 0x2
	.quad	__strdata15619025671837786463_0
	.quad	3                               # 0x3
	.quad	0
	.long	0                               # 0x0
	.zero	4
	.zero	8
	.quad	4                               # 0x4
	.quad	__strdata15619023472814530097_0
	.quad	3                               # 0x3
	.quad	0
	.long	0                               # 0x0
	.zero	4
	.zero	8
	.quad	8                               # 0x8
	.quad	__strdata15619026771349414696_2
	.quad	3                               # 0x3
	.quad	0
	.long	0                               # 0x0
	.zero	4
	.zero	8
	.quad	1                               # 0x1
	.quad	__strdata15607450013418251725_1
	.quad	3                               # 0x3
	.quad	0
	.long	0                               # 0x0
	.zero	4
	.zero	8
	.quad	2                               # 0x2
	.quad	__strdata9334348488207854650_0
	.quad	4                               # 0x4
	.quad	0
	.long	0                               # 0x0
	.zero	4
	.zero	8
	.quad	4                               # 0x4
	.quad	__strdata9334350687231110976_0
	.quad	4                               # 0x4
	.quad	0
	.long	0                               # 0x0
	.zero	4
	.zero	8
	.quad	8                               # 0x8
	.quad	__strdata9334347388696226413_1
	.quad	4                               # 0x4
	.quad	0
	.long	1                               # 0x1
	.zero	4
	.zero	8
	.quad	8                               # 0x8
	.quad	__strdata15621861312326374915_0
	.quad	3                               # 0x3
	.quad	0
	.long	1                               # 0x1
	.zero	4
	.zero	8
	.quad	4                               # 0x4
	.quad	__strdata15621855814768233866_0
	.quad	3                               # 0x3
	.quad	0
	.long	1                               # 0x1
	.zero	4
	.zero	8
	.quad	8                               # 0x8
	.quad	__strdata15621861312326374915_0
	.quad	3                               # 0x3
	.quad	0
	.long	3                               # 0x3
	.zero	4
	.zero	8
	.quad	1                               # 0x1
	.quad	__strdata2815635419282886937_0
	.quad	4                               # 0x4
	.quad	0
	.long	12                              # 0xc
	.zero	4
	.zero	8
	.quad	0                               # 0x0
	.quad	__strdata8771555764879172219_0
	.quad	4                               # 0x4
	.quad	0
	.long	13                              # 0xd
	.zero	4
	.zero	8
	.quad	0                               # 0x0
	.quad	__strdata17931190884842557978_0
	.quad	11                              # 0xb
	.quad	0
	.long	13                              # 0xd
	.zero	4
	.zero	8
	.quad	0                               # 0x0
	.quad	__strdata3413646272969591373_0
	.quad	11                              # 0xb
	.quad	0
	.long	13                              # 0xd
	.zero	4
	.zero	8
	.quad	0                               # 0x0
	.quad	__strdata6683274636743216908_0
	.quad	7                               # 0x7
	.quad	0
	.long	13                              # 0xd
	.zero	4
	.zero	8
	.quad	0                               # 0x0
	.quad	__strdata5957045100754887228_1
	.quad	18                              # 0x12
	.quad	0
	.long	13                              # 0xd
	.zero	4
	.zero	8
	.quad	0                               # 0x0
	.quad	__strdata2055580414287477511_0
	.quad	4                               # 0x4
	.quad	0
	.long	13                              # 0xd
	.zero	4
	.zero	8
	.quad	0                               # 0x0
	.quad	__strdata2055580414287477511_0
	.quad	4                               # 0x4
	.quad	0
	.long	13                              # 0xd
	.zero	4
	.zero	8
	.quad	0                               # 0x0
	.quad	__strdata6314963136226311032_0
	.quad	6                               # 0x6
	.quad	0
	.long	13                              # 0xd
	.zero	4
	.zero	8
	.quad	0                               # 0x0
	.quad	__strdata6314963136226311032_0
	.quad	6                               # 0x6
	.quad	0
	.long	13                              # 0xd
	.zero	4
	.zero	8
	.quad	0                               # 0x0
	.quad	__strdata6683274636743216908_0
	.quad	7                               # 0x7
	.quad	0
	.long	13                              # 0xd
	.zero	4
	.zero	8
	.quad	0                               # 0x0
	.quad	__strdata2055580414287477511_0
	.quad	4                               # 0x4
	.quad	0
	.long	13                              # 0xd
	.zero	4
	.zero	8
	.quad	0                               # 0x0
	.quad	__strdata2055580414287477511_0
	.quad	4                               # 0x4
	.quad	0
	.long	13                              # 0xd
	.zero	4
	.zero	8
	.quad	0                               # 0x0
	.quad	__strdata2055580414287477511_0
	.quad	4                               # 0x4
	.quad	0
	.long	13                              # 0xd
	.zero	4
	.zero	8
	.quad	0                               # 0x0
	.quad	__strdata2055580414287477511_0
	.quad	4                               # 0x4
	.quad	0
	.long	13                              # 0xd
	.zero	4
	.zero	8
	.quad	0                               # 0x0
	.quad	__strdata17931190884842557978_0
	.quad	11                              # 0xb
	.quad	0
	.long	13                              # 0xd
	.zero	4
	.zero	8
	.quad	0                               # 0x0
	.quad	__strdata17931190884842557978_0
	.quad	11                              # 0xb
	.quad	0
	.long	13                              # 0xd
	.zero	4
	.zero	8
	.quad	0                               # 0x0
	.quad	__strdata5957045100754887228_1
	.quad	18                              # 0x12
	.quad	0
	.long	13                              # 0xd
	.zero	4
	.zero	8
	.quad	0                               # 0x0
	.quad	__strdata2055580414287477511_0
	.quad	4                               # 0x4
	.quad	0
	.long	13                              # 0xd
	.zero	4
	.zero	8
	.quad	0                               # 0x0
	.quad	__strdata2055580414287477511_0
	.quad	4                               # 0x4
	.quad	0
	.long	2                               # 0x2
	.zero	4
	.quad	__unnamed_12
	.quad	16                              # 0x10
	.quad	__strdata11423379122722415671_0
	.quad	15                              # 0xf
	.quad	0
	.long	6                               # 0x6
	.zero	4
	.quad	__unnamed_13
	.quad	48                              # 0x30
	.quad	__strdata15254514312748677504_0
	.quad	17                              # 0x11
	.quad	0
	.long	7                               # 0x7
	.zero	4
	.zero	8
	.quad	8                               # 0x8
	.quad	__strdata9051509512464452953_0
	.quad	18                              # 0x12
	.quad	0
	.long	6                               # 0x6
	.zero	4
	.quad	__unnamed_14
	.quad	40                              # 0x28
	.quad	__strdata3340617818257337827_1
	.quad	23                              # 0x17
	.quad	0
	.long	6                               # 0x6
	.zero	4
	.quad	__unnamed_15
	.quad	32                              # 0x20
	.quad	__strdata13924775967332107232_0
	.quad	27                              # 0x1b
	.quad	0
	.long	6                               # 0x6
	.zero	4
	.quad	__unnamed_16
	.quad	40                              # 0x28
	.quad	__strdata17684791903689264477_0
	.quad	22                              # 0x16
	.quad	0
	.long	6                               # 0x6
	.zero	4
	.quad	__unnamed_17
	.quad	24                              # 0x18
	.quad	__strdata5304302150619416902_0
	.quad	26                              # 0x1a
	.quad	0
	.long	6                               # 0x6
	.zero	4
	.quad	__unnamed_18
	.quad	64                              # 0x40
	.quad	__strdata15471130927900995209_0
	.quad	28                              # 0x1c
	.quad	0
	.long	6                               # 0x6
	.zero	4
	.quad	__unnamed_19
	.quad	24                              # 0x18
	.quad	__strdata5970851590628670703_0
	.quad	22                              # 0x16
	.quad	0
	.long	6                               # 0x6
	.zero	4
	.quad	__unnamed_20
	.quad	8                               # 0x8
	.quad	__strdata1520842166302801531_1
	.quad	24                              # 0x18
	.quad	0
	.long	6                               # 0x6
	.zero	4
	.quad	__unnamed_21
	.quad	64                              # 0x40
	.quad	__strdata8344292570398295375_0
	.quad	21                              # 0x15
	.quad	0
	.long	6                               # 0x6
	.zero	4
	.quad	__unnamed_22
	.quad	32                              # 0x20
	.quad	__strdata8084014427508824548_0
	.quad	25                              # 0x19
	.quad	0
	.long	6                               # 0x6
	.zero	4
	.quad	__unnamed_23
	.quad	32                              # 0x20
	.quad	__strdata8848730913094478162_1
	.quad	21                              # 0x15
	.quad	0
	.long	6                               # 0x6
	.zero	4
	.quad	__unnamed_24
	.quad	24                              # 0x18
	.quad	__strdata6936744544989295375_0
	.quad	24                              # 0x18
	.quad	0
	.long	6                               # 0x6
	.zero	4
	.quad	__unnamed_25
	.quad	48                              # 0x30
	.quad	__strdata9212496234100565074_2
	.quad	22                              # 0x16
	.quad	0
	.long	6                               # 0x6
	.zero	4
	.quad	__unnamed_26
	.quad	16                              # 0x10
	.quad	__strdata2191593908404634858_0
	.quad	12                              # 0xc
	.quad	0
	.long	6                               # 0x6
	.zero	4
	.quad	__unnamed_27
	.quad	24                              # 0x18
	.quad	__strdata16891895168827899804_0
	.quad	18                              # 0x12
	.quad	0
	.long	6                               # 0x6
	.zero	4
	.quad	__unnamed_28
	.quad	40                              # 0x28
	.quad	__strdata10755795708941580517_0
	.quad	22                              # 0x16
	.quad	0
	.long	6                               # 0x6
	.zero	4
	.quad	__unnamed_29
	.quad	16                              # 0x10
	.quad	__strdata12304584334753793091_1
	.quad	14                              # 0xe
	.quad	0
	.long	5                               # 0x5
	.zero	4
	.quad	__unnamed_30
	.quad	4                               # 0x4
	.quad	__strdata16584017384957006154_1
	.quad	17                              # 0x11
	.quad	0
	.long	10                              # 0xa
	.zero	4
	.quad	__unnamed_31
	.quad	8                               # 0x8
	.quad	__strdata17924015545111912961_0
	.quad	28                              # 0x1c
	.quad	0
	.long	10                              # 0xa
	.zero	4
	.quad	__unnamed_32
	.quad	8                               # 0x8
	.quad	__strdata16716023734102834686_0
	.quad	41                              # 0x29
	.quad	0
	.long	10                              # 0xa
	.zero	4
	.quad	__unnamed_33
	.quad	8                               # 0x8
	.quad	__strdata16716023734102834686_0
	.quad	41                              # 0x29
	.quad	0
	.long	10                              # 0xa
	.zero	4
	.quad	__unnamed_34
	.quad	8                               # 0x8
	.quad	__strdata14621370817184343422_1
	.quad	52                              # 0x34
	.quad	0
	.long	14                              # 0xe
	.zero	4
	.quad	__unnamed_35
	.quad	4                               # 0x4
	.quad	__strdata1794203741079866866_1
	.quad	18                              # 0x12
	.quad	0
	.long	14                              # 0xe
	.zero	4
	.quad	__unnamed_36
	.quad	8                               # 0x8
	.quad	__strdata4239809595497624582_0
	.quad	19                              # 0x13
	.quad	0
	.long	14                              # 0xe
	.zero	4
	.quad	__unnamed_37
	.quad	4                               # 0x4
	.quad	__strdata2082989817018855188_0
	.quad	17                              # 0x11
	.quad	0
	.long	14                              # 0xe
	.zero	4
	.quad	__unnamed_38
	.quad	8                               # 0x8
	.quad	__strdata3904606428788120382_1
	.quad	21                              # 0x15
	.quad	0
	.long	7                               # 0x7
	.zero	4
	.zero	8
	.quad	8                               # 0x8
	.quad	__strdata7297919914740487152_0
	.quad	26                              # 0x1a
	.quad	0
	.long	6                               # 0x6
	.zero	4
	.quad	__unnamed_39
	.quad	8                               # 0x8
	.quad	__strdata16825853929091994280_3
	.quad	28                              # 0x1c
	.quad	0
	.long	5                               # 0x5
	.zero	4
	.quad	__unnamed_40
	.quad	4                               # 0x4
	.quad	__strdata2340620051528828746_2
	.quad	30                              # 0x1e
	.quad	0
	.long	5                               # 0x5
	.zero	4
	.quad	__unnamed_41
	.quad	4                               # 0x4
	.quad	__strdata2043441132040612162_0
	.quad	27                              # 0x1b
	.quad	0
	.long	5                               # 0x5
	.zero	4
	.quad	__unnamed_42
	.quad	4                               # 0x4
	.quad	__strdata14194649788198526492_1
	.quad	30                              # 0x1e
	.quad	0
	.long	5                               # 0x5
	.zero	4
	.quad	__unnamed_43
	.quad	4                               # 0x4
	.quad	__strdata6181657167123994845_2
	.quad	31                              # 0x1f
	.quad	0
	.long	5                               # 0x5
	.zero	4
	.quad	__unnamed_44
	.quad	4                               # 0x4
	.quad	__strdata10729137111855244535_1
	.quad	22                              # 0x16
	.quad	0
	.long	6                               # 0x6
	.zero	4
	.quad	__unnamed_45
	.quad	4                               # 0x4
	.quad	__strdata1666362089862242729_1
	.quad	13                              # 0xd
	.quad	0
	.long	6                               # 0x6
	.zero	4
	.quad	__unnamed_46
	.quad	8                               # 0x8
	.quad	__strdata3600015184740367505_0
	.quad	15                              # 0xf
	.quad	0
	.long	6                               # 0x6
	.zero	4
	.quad	__unnamed_47
	.quad	16                              # 0x10
	.quad	__strdata15826633158210492155_2
	.quad	17                              # 0x11
	.quad	0
	.long	5                               # 0x5
	.zero	4
	.quad	__unnamed_48
	.quad	4                               # 0x4
	.quad	__strdata13766225152608088304_1
	.quad	19                              # 0x13
	.quad	0
	.long	5                               # 0x5
	.zero	4
	.quad	__unnamed_49
	.quad	4                               # 0x4
	.quad	__strdata9354104747510179631_1
	.quad	19                              # 0x13
	.quad	0
	.long	10                              # 0xa
	.zero	4
	.quad	__unnamed_50
	.quad	8                               # 0x8
	.quad	__strdata5863122623959614440_0
	.quad	52                              # 0x34
	.quad	0
	.long	10                              # 0xa
	.zero	4
	.quad	__unnamed_51
	.quad	8                               # 0x8
	.quad	__strdata5863122623959614440_0
	.quad	52                              # 0x34
	.quad	0
	.long	10                              # 0xa
	.zero	4
	.quad	__unnamed_52
	.quad	8                               # 0x8
	.quad	__strdata11250410979142274562_2
	.quad	40                              # 0x28
	.quad	0
	.long	6                               # 0x6
	.zero	4
	.quad	__unnamed_53
	.quad	32                              # 0x20
	.quad	__strdata7860443705646711856_2
	.quad	20                              # 0x14
	.quad	0
	.long	6                               # 0x6
	.zero	4
	.quad	__unnamed_54
	.quad	16                              # 0x10
	.quad	__strdata7702635590820517778_3
	.quad	13                              # 0xd
	.quad	0
	.long	5                               # 0x5
	.zero	4
	.quad	__unnamed_55
	.quad	4                               # 0x4
	.quad	__strdata14144515195566193711_2
	.quad	17                              # 0x11
	.quad	0
	.long	5                               # 0x5
	.zero	4
	.quad	__unnamed_56
	.quad	4                               # 0x4
	.quad	__strdata3907155611645950541_3
	.quad	21                              # 0x15
	.quad	0
	.long	6                               # 0x6
	.zero	4
	.quad	__unnamed_57
	.quad	32                              # 0x20
	.quad	__strdata1132467538766920468_3
	.quad	33                              # 0x21
	.quad	0
	.long	10                              # 0xa
	.zero	4
	.quad	__unnamed_58
	.quad	8                               # 0x8
	.quad	__strdata2923461409000577710_1
	.quad	46                              # 0x2e
	.quad	0
	.long	9                               # 0x9
	.zero	4
	.quad	__unnamed_59
	.quad	8                               # 0x8
	.quad	__strdata823881105282296765_2
	.quad	4                               # 0x4
	.quad	0
	.long	9                               # 0x9
	.zero	4
	.quad	__unnamed_60
	.quad	8                               # 0x8
	.quad	__strdata16515216123556879851_1
	.quad	5                               # 0x5
	.quad	0
	.long	9                               # 0x9
	.zero	4
	.quad	__unnamed_61
	.quad	8                               # 0x8
	.quad	__strdata2460452313330354911_2
	.quad	23                              # 0x17
	.quad	0
	.long	9                               # 0x9
	.zero	4
	.quad	__unnamed_62
	.quad	8                               # 0x8
	.quad	__strdata550175320446147359_4
	.quad	22                              # 0x16
	.quad	0
	.long	9                               # 0x9
	.zero	4
	.quad	__unnamed_63
	.quad	8                               # 0x8
	.quad	__strdata9353821298023913523_3
	.quad	24                              # 0x18
	.quad	0
	.long	9                               # 0x9
	.zero	4
	.quad	__unnamed_64
	.quad	8                               # 0x8
	.quad	__strdata12665228205949390541_4
	.quad	23                              # 0x17
	.quad	0
	.long	9                               # 0x9
	.zero	4
	.quad	__unnamed_65
	.quad	8                               # 0x8
	.quad	__strdata12410600866341289241_2
	.quad	29                              # 0x1d
	.quad	0
	.long	9                               # 0x9
	.zero	4
	.quad	__unnamed_66
	.quad	8                               # 0x8
	.quad	__strdata12603452130465104875_2
	.quad	25                              # 0x19
	.quad	0
	.long	9                               # 0x9
	.zero	4
	.quad	__unnamed_67
	.quad	8                               # 0x8
	.quad	__strdata1330212849768689826_2
	.quad	22                              # 0x16
	.quad	0
	.long	9                               # 0x9
	.zero	4
	.quad	__unnamed_68
	.quad	8                               # 0x8
	.quad	__strdata16564431330569319679_3
	.quad	25                              # 0x19
	.quad	0
	.long	9                               # 0x9
	.zero	4
	.quad	__unnamed_69
	.quad	8                               # 0x8
	.quad	__strdata2635496303208364098_1
	.quad	23                              # 0x17
	.quad	0
	.long	4                               # 0x4
	.zero	4
	.quad	__unnamed_70
	.quad	24                              # 0x18
	.quad	__strdata5832846411717587748_2
	.quad	29                              # 0x1d
	.quad	0
	.long	9                               # 0x9
	.zero	4
	.quad	__unnamed_71
	.quad	8                               # 0x8
	.quad	__strdata6674921332598366128_3
	.quad	18                              # 0x12
	.quad	0
	.long	4                               # 0x4
	.zero	4
	.quad	__unnamed_72
	.quad	24                              # 0x18
	.quad	__strdata4404232747064184970_4
	.quad	28                              # 0x1c
	.quad	0
	.long	9                               # 0x9
	.zero	4
	.quad	__unnamed_73
	.quad	8                               # 0x8
	.quad	__strdata6674921332598366128_3
	.quad	18                              # 0x12
	.quad	0
	.long	4                               # 0x4
	.zero	4
	.quad	__unnamed_74
	.quad	24                              # 0x18
	.quad	__strdata4404232747064184970_4
	.quad	28                              # 0x1c
	.quad	0
	.long	9                               # 0x9
	.zero	4
	.quad	__unnamed_75
	.quad	8                               # 0x8
	.quad	__strdata6674921332598366128_3
	.quad	18                              # 0x12
	.quad	0
	.long	9                               # 0x9
	.zero	4
	.quad	__unnamed_76
	.quad	8                               # 0x8
	.quad	__strdata6674921332598366128_3
	.quad	18                              # 0x12
	.quad	0
	.long	4                               # 0x4
	.zero	4
	.quad	__unnamed_77
	.quad	24                              # 0x18
	.quad	__strdata12355038372843395920_0
	.quad	27                              # 0x1b
	.quad	0
	.long	9                               # 0x9
	.zero	4
	.quad	__unnamed_78
	.quad	8                               # 0x8
	.quad	__strdata6674921332598366128_3
	.quad	18                              # 0x12
	.quad	0
	.long	9                               # 0x9
	.zero	4
	.quad	__unnamed_79
	.quad	8                               # 0x8
	.quad	__strdata6674921332598366128_3
	.quad	18                              # 0x12
	.quad	0
	.long	4                               # 0x4
	.zero	4
	.quad	__unnamed_80
	.quad	24                              # 0x18
	.quad	__strdata18114362282309125852_1
	.quad	20                              # 0x14
	.quad	0
	.long	9                               # 0x9
	.zero	4
	.quad	__unnamed_81
	.quad	8                               # 0x8
	.quad	__strdata6674921332598366128_3
	.quad	18                              # 0x12
	.quad	0
	.long	9                               # 0x9
	.zero	4
	.quad	__unnamed_82
	.quad	8                               # 0x8
	.quad	__strdata6674921332598366128_3
	.quad	18                              # 0x12
	.quad	0
	.long	9                               # 0x9
	.zero	4
	.quad	__unnamed_83
	.quad	8                               # 0x8
	.quad	__strdata6674921332598366128_3
	.quad	18                              # 0x12
	.quad	0
	.long	4                               # 0x4
	.zero	4
	.quad	__unnamed_84
	.quad	24                              # 0x18
	.quad	__strdata18114362282309125852_1
	.quad	20                              # 0x14
	.quad	0
	.long	4                               # 0x4
	.zero	4
	.quad	__unnamed_85
	.quad	24                              # 0x18
	.quad	__strdata460251037766835052_1
	.quad	5                               # 0x5
	.quad	0
	.long	9                               # 0x9
	.zero	4
	.quad	__unnamed_86
	.quad	8                               # 0x8
	.quad	__strdata6674921332598366128_3
	.quad	18                              # 0x12
	.quad	0
	.long	9                               # 0x9
	.zero	4
	.quad	__unnamed_87
	.quad	8                               # 0x8
	.quad	__strdata16515216123556879851_1
	.quad	5                               # 0x5
	.quad	0
	.long	9                               # 0x9
	.zero	4
	.quad	__unnamed_88
	.quad	8                               # 0x8
	.quad	__strdata16515216123556879851_1
	.quad	5                               # 0x5
	.quad	0
	.long	4                               # 0x4
	.zero	4
	.quad	__unnamed_89
	.quad	24                              # 0x18
	.quad	__strdata14481814882517510523_6
	.quad	17                              # 0x11
	.quad	0
	.long	9                               # 0x9
	.zero	4
	.quad	__unnamed_90
	.quad	8                               # 0x8
	.quad	__strdata17261919758853572208_3
	.quad	5                               # 0x5
	.quad	0
	.long	9                               # 0x9
	.zero	4
	.quad	__unnamed_91
	.quad	8                               # 0x8
	.quad	__strdata16515216123556879851_1
	.quad	5                               # 0x5
	.quad	0
	.long	9                               # 0x9
	.zero	4
	.quad	__unnamed_92
	.quad	8                               # 0x8
	.quad	__strdata823881105282296765_2
	.quad	4                               # 0x4
	.quad	0
	.long	9                               # 0x9
	.zero	4
	.quad	__unnamed_93
	.quad	8                               # 0x8
	.quad	__strdata16515216123556879851_1
	.quad	5                               # 0x5
	.quad	0
	.long	10                              # 0xa
	.zero	4
	.quad	__unnamed_94
	.quad	8                               # 0x8
	.quad	__strdata14374271665513811082_5
	.quad	35                              # 0x23
	.quad	0
	.long	10                              # 0xa
	.zero	4
	.quad	__unnamed_95
	.quad	8                               # 0x8
	.quad	__strdata908303143232252516_3
	.quad	34                              # 0x22
	.quad	0
	.long	10                              # 0xa
	.zero	4
	.quad	__unnamed_96
	.quad	8                               # 0x8
	.quad	__strdata908303143232252516_3
	.quad	34                              # 0x22
	.quad	0
	.long	10                              # 0xa
	.zero	4
	.quad	__unnamed_97
	.quad	8                               # 0x8
	.quad	__strdata908303143232252516_3
	.quad	34                              # 0x22
	.quad	0
	.long	10                              # 0xa
	.zero	4
	.quad	__unnamed_98
	.quad	8                               # 0x8
	.quad	__strdata908303143232252516_3
	.quad	34                              # 0x22
	.quad	0
	.long	10                              # 0xa
	.zero	4
	.quad	__unnamed_99
	.quad	8                               # 0x8
	.quad	__strdata17281684659875913144_3
	.quad	9                               # 0x9
	.quad	0
	.long	10                              # 0xa
	.zero	4
	.quad	__unnamed_100
	.quad	8                               # 0x8
	.quad	__strdata17281684659875913144_3
	.quad	9                               # 0x9
	.quad	0
	.long	9                               # 0x9
	.zero	4
	.quad	__unnamed_101
	.quad	8                               # 0x8
	.quad	__strdata823881105282296765_2
	.quad	4                               # 0x4
	.quad	0
	.long	4                               # 0x4
	.zero	4
	.quad	__unnamed_102
	.quad	24                              # 0x18
	.quad	__strdata6677372211632227350_4
	.quad	14                              # 0xe
	.quad	0
	.long	10                              # 0xa
	.zero	4
	.quad	__unnamed_103
	.quad	8                               # 0x8
	.quad	__strdata4937508437334708960_1
	.quad	28                              # 0x1c
	.quad	0
	.long	9                               # 0x9
	.zero	4
	.quad	__unnamed_104
	.quad	8                               # 0x8
	.quad	__strdata823881105282296765_2
	.quad	4                               # 0x4
	.quad	0
	.long	9                               # 0x9
	.zero	4
	.quad	__unnamed_105
	.quad	8                               # 0x8
	.quad	__strdata823881105282296765_2
	.quad	4                               # 0x4
	.quad	0
	.long	4                               # 0x4
	.zero	4
	.quad	__unnamed_106
	.quad	24                              # 0x18
	.quad	__strdata6677372211632227350_4
	.quad	14                              # 0xe
	.quad	0
	.long	10                              # 0xa
	.zero	4
	.quad	__unnamed_107
	.quad	8                               # 0x8
	.quad	__strdata5333830468150277174_1
	.quad	40                              # 0x28
	.quad	0
	.long	9                               # 0x9
	.zero	4
	.quad	__unnamed_108
	.quad	8                               # 0x8
	.quad	__strdata16515216123556879851_1
	.quad	5                               # 0x5
	.quad	0
	.long	10                              # 0xa
	.zero	4
	.quad	__unnamed_109
	.quad	8                               # 0x8
	.quad	__strdata8941004336180139005_1
	.quad	13                              # 0xd
	.quad	0
	.long	9                               # 0x9
	.zero	4
	.quad	__unnamed_110
	.quad	8                               # 0x8
	.quad	__strdata16515216123556879851_1
	.quad	5                               # 0x5
	.quad	0
	.long	9                               # 0x9
	.zero	4
	.quad	__unnamed_111
	.quad	8                               # 0x8
	.quad	__strdata16515216123556879851_1
	.quad	5                               # 0x5
	.quad	0
	.long	10                              # 0xa
	.zero	4
	.quad	__unnamed_112
	.quad	8                               # 0x8
	.quad	__strdata17135722226046591555_3
	.quad	20                              # 0x14
	.quad	0
	.long	9                               # 0x9
	.zero	4
	.quad	__unnamed_113
	.quad	8                               # 0x8
	.quad	__strdata16515216123556879851_1
	.quad	5                               # 0x5
	.quad	0
	.long	10                              # 0xa
	.zero	4
	.quad	__unnamed_114
	.quad	8                               # 0x8
	.quad	__strdata12226087325390986226_5
	.quad	14                              # 0xe
	.quad	0
	.long	10                              # 0xa
	.zero	4
	.quad	__unnamed_115
	.quad	8                               # 0x8
	.quad	__strdata2194067661868274174_4
	.quad	12                              # 0xc
	.quad	0
	.long	9                               # 0x9
	.zero	4
	.quad	__unnamed_116
	.quad	8                               # 0x8
	.quad	__strdata15679190948121571242_2
	.quad	3                               # 0x3
	.quad	0
	.long	10                              # 0xa
	.zero	4
	.quad	__unnamed_117
	.quad	8                               # 0x8
	.quad	__strdata9292862473994640360_1
	.quad	11                              # 0xb
	.quad	0
	.long	9                               # 0x9
	.zero	4
	.quad	__unnamed_118
	.quad	8                               # 0x8
	.quad	__strdata823881105282296765_2
	.quad	4                               # 0x4
	.quad	0
	.long	9                               # 0x9
	.zero	4
	.quad	__unnamed_119
	.quad	8                               # 0x8
	.quad	__strdata823881105282296765_2
	.quad	4                               # 0x4
	.quad	0
	.long	10                              # 0xa
	.zero	4
	.quad	__unnamed_120
	.quad	8                               # 0x8
	.quad	__strdata8254144612437032404_1
	.quad	18                              # 0x12
	.quad	0
	.long	9                               # 0x9
	.zero	4
	.quad	__unnamed_121
	.quad	8                               # 0x8
	.quad	__strdata823881105282296765_2
	.quad	4                               # 0x4
	.quad	0
	.long	10                              # 0xa
	.zero	4
	.quad	__unnamed_122
	.quad	8                               # 0x8
	.quad	__strdata3083605008670270273_0
	.quad	12                              # 0xc
	.quad	0
	.long	9                               # 0x9
	.zero	4
	.quad	__unnamed_123
	.quad	8                               # 0x8
	.quad	__strdata16515216123556879851_1
	.quad	5                               # 0x5
	.quad	0
	.long	9                               # 0x9
	.zero	4
	.quad	__unnamed_124
	.quad	8                               # 0x8
	.quad	__strdata16515216123556879851_1
	.quad	5                               # 0x5
	.quad	0
	.long	9                               # 0x9
	.zero	4
	.quad	__unnamed_125
	.quad	8                               # 0x8
	.quad	__strdata16515216123556879851_1
	.quad	5                               # 0x5
	.quad	0
	.long	10                              # 0xa
	.zero	4
	.quad	__unnamed_126
	.quad	8                               # 0x8
	.quad	__strdata15261630968378112297_2
	.quad	27                              # 0x1b
	.quad	0
	.long	9                               # 0x9
	.zero	4
	.quad	__unnamed_127
	.quad	8                               # 0x8
	.quad	__strdata16515216123556879851_1
	.quad	5                               # 0x5
	.quad	0
	.long	9                               # 0x9
	.zero	4
	.quad	__unnamed_128
	.quad	8                               # 0x8
	.quad	__strdata16515216123556879851_1
	.quad	5                               # 0x5
	.quad	0
	.long	10                              # 0xa
	.zero	4
	.quad	__unnamed_129
	.quad	8                               # 0x8
	.quad	__strdata11060277663493954939_7
	.quad	25                              # 0x19
	.quad	0
	.long	10                              # 0xa
	.zero	4
	.quad	__unnamed_130
	.quad	8                               # 0x8
	.quad	__strdata8364260833527932536_3
	.quad	12                              # 0xc
	.quad	0
	.long	9                               # 0x9
	.zero	4
	.quad	__unnamed_131
	.quad	8                               # 0x8
	.quad	__strdata16515216123556879851_1
	.quad	5                               # 0x5
	.quad	0
	.long	9                               # 0x9
	.zero	4
	.quad	__unnamed_132
	.quad	8                               # 0x8
	.quad	__strdata823881105282296765_2
	.quad	4                               # 0x4
	.quad	0
	.long	9                               # 0x9
	.zero	4
	.quad	__unnamed_133
	.quad	8                               # 0x8
	.quad	__strdata823881105282296765_2
	.quad	4                               # 0x4
	.quad	0
	.long	10                              # 0xa
	.zero	4
	.quad	__unnamed_134
	.quad	8                               # 0x8
	.quad	__strdata7924020360265410520_5
	.quad	30                              # 0x1e
	.quad	0
	.long	9                               # 0x9
	.zero	4
	.quad	__unnamed_135
	.quad	8                               # 0x8
	.quad	__strdata16515216123556879851_1
	.quad	5                               # 0x5
	.quad	0
	.long	9                               # 0x9
	.zero	4
	.quad	__unnamed_136
	.quad	8                               # 0x8
	.quad	__strdata823881105282296765_2
	.quad	4                               # 0x4
	.quad	0
	.long	9                               # 0x9
	.zero	4
	.quad	__unnamed_137
	.quad	8                               # 0x8
	.quad	__strdata16515216123556879851_1
	.quad	5                               # 0x5
	.quad	0
	.long	9                               # 0x9
	.zero	4
	.quad	__unnamed_138
	.quad	8                               # 0x8
	.quad	__strdata16515216123556879851_1
	.quad	5                               # 0x5
	.quad	0
	.long	10                              # 0xa
	.zero	4
	.quad	__unnamed_139
	.quad	8                               # 0x8
	.quad	__strdata15750303519283879794_6
	.quad	108                             # 0x6c
	.quad	0
	.long	9                               # 0x9
	.zero	4
	.quad	__unnamed_140
	.quad	8                               # 0x8
	.quad	__strdata16515216123556879851_1
	.quad	5                               # 0x5
	.quad	0
	.long	9                               # 0x9
	.zero	4
	.quad	__unnamed_141
	.quad	8                               # 0x8
	.quad	__strdata16515216123556879851_1
	.quad	5                               # 0x5
	.quad	0
	.long	9                               # 0x9
	.zero	4
	.quad	__unnamed_142
	.quad	8                               # 0x8
	.quad	__strdata16515216123556879851_1
	.quad	5                               # 0x5
	.quad	0
	.long	10                              # 0xa
	.zero	4
	.quad	__unnamed_143
	.quad	8                               # 0x8
	.quad	__strdata12189968381309121038_4
	.quad	69                              # 0x45
	.quad	0
	.long	9                               # 0x9
	.zero	4
	.quad	__unnamed_144
	.quad	8                               # 0x8
	.quad	__strdata16515216123556879851_1
	.quad	5                               # 0x5
	.quad	0
	.long	9                               # 0x9
	.zero	4
	.quad	__unnamed_145
	.quad	8                               # 0x8
	.quad	__strdata16515216123556879851_1
	.quad	5                               # 0x5
	.quad	0
	.long	9                               # 0x9
	.zero	4
	.quad	__unnamed_146
	.quad	8                               # 0x8
	.quad	__strdata16515216123556879851_1
	.quad	5                               # 0x5
	.quad	0
	.long	10                              # 0xa
	.zero	4
	.quad	__unnamed_147
	.quad	8                               # 0x8
	.quad	__strdata12189968381309121038_4
	.quad	69                              # 0x45
	.quad	0
	.long	9                               # 0x9
	.zero	4
	.quad	__unnamed_148
	.quad	8                               # 0x8
	.quad	__strdata16515216123556879851_1
	.quad	5                               # 0x5
	.quad	0
	.long	10                              # 0xa
	.zero	4
	.quad	__unnamed_149
	.quad	8                               # 0x8
	.quad	__strdata12226087325390986226_5
	.quad	14                              # 0xe
	.quad	0
	.long	9                               # 0x9
	.zero	4
	.quad	__unnamed_150
	.quad	8                               # 0x8
	.quad	__strdata16515216123556879851_1
	.quad	5                               # 0x5
	.quad	0
	.long	10                              # 0xa
	.zero	4
	.quad	__unnamed_151
	.quad	8                               # 0x8
	.quad	__strdata16413758274209318276_0
	.quad	32                              # 0x20
	.quad	0
	.long	9                               # 0x9
	.zero	4
	.quad	__unnamed_152
	.quad	8                               # 0x8
	.quad	__strdata16515216123556879851_1
	.quad	5                               # 0x5
	.quad	0
	.long	9                               # 0x9
	.zero	4
	.quad	__unnamed_153
	.quad	8                               # 0x8
	.quad	__strdata13578408568009724352_2
	.quad	27                              # 0x1b
	.quad	0
	.long	10                              # 0xa
	.zero	4
	.quad	__unnamed_154
	.quad	8                               # 0x8
	.quad	__strdata10841864356175684401_3
	.quad	43                              # 0x2b
	.quad	0
	.long	10                              # 0xa
	.zero	4
	.quad	__unnamed_155
	.quad	8                               # 0x8
	.quad	__strdata8364260833527932536_3
	.quad	12                              # 0xc
	.quad	0
	.long	9                               # 0x9
	.zero	4
	.quad	__unnamed_156
	.quad	8                               # 0x8
	.quad	__strdata823881105282296765_2
	.quad	4                               # 0x4
	.quad	0
	.long	10                              # 0xa
	.zero	4
	.quad	__unnamed_157
	.quad	8                               # 0x8
	.quad	__strdata108209918238413372_4
	.quad	23                              # 0x17
	.quad	0
	.long	10                              # 0xa
	.zero	4
	.quad	__unnamed_158
	.quad	8                               # 0x8
	.quad	__strdata17281684659875913144_3
	.quad	9                               # 0x9
	.quad	0
	.long	10                              # 0xa
	.zero	4
	.quad	__unnamed_159
	.quad	8                               # 0x8
	.quad	__strdata17281684659875913144_3
	.quad	9                               # 0x9
	.quad	0
	.long	10                              # 0xa
	.zero	4
	.quad	__unnamed_160
	.quad	8                               # 0x8
	.quad	__strdata11356656192979789118_4
	.quad	9                               # 0x9
	.quad	0
	.long	10                              # 0xa
	.zero	4
	.quad	__unnamed_161
	.quad	8                               # 0x8
	.quad	__strdata6055121116940924736_3
	.quad	22                              # 0x16
	.quad	0
	.long	9                               # 0x9
	.zero	4
	.quad	__unnamed_162
	.quad	8                               # 0x8
	.quad	__strdata823881105282296765_2
	.quad	4                               # 0x4
	.quad	0
	.long	10                              # 0xa
	.zero	4
	.quad	__unnamed_163
	.quad	8                               # 0x8
	.quad	__strdata9041461596135512440_4
	.quad	17                              # 0x11
	.quad	0
	.long	10                              # 0xa
	.zero	4
	.quad	__unnamed_164
	.quad	8                               # 0x8
	.quad	__strdata8364260833527932536_3
	.quad	12                              # 0xc
	.quad	0
	.long	10                              # 0xa
	.zero	4
	.quad	__unnamed_165
	.quad	8                               # 0x8
	.quad	__strdata9872577390002759659_3
	.quad	8                               # 0x8
	.quad	0
	.long	10                              # 0xa
	.zero	4
	.quad	__unnamed_166
	.quad	8                               # 0x8
	.quad	__strdata21021979297403988_2
	.quad	20                              # 0x14
	.quad	0
	.long	10                              # 0xa
	.zero	4
	.quad	__unnamed_167
	.quad	8                               # 0x8
	.quad	__strdata11421665488840970576_1
	.quad	43                              # 0x2b
	.quad	0
	.long	10                              # 0xa
	.zero	4
	.quad	__unnamed_168
	.quad	8                               # 0x8
	.quad	__strdata2194067661868274174_4
	.quad	12                              # 0xc
	.quad	0
	.long	10                              # 0xa
	.zero	4
	.quad	__unnamed_169
	.quad	8                               # 0x8
	.quad	__strdata9886959002096921096_5
	.quad	8                               # 0x8
	.quad	0
	.long	10                              # 0xa
	.zero	4
	.quad	__unnamed_170
	.quad	8                               # 0x8
	.quad	__strdata9886959002096921096_5
	.quad	8                               # 0x8
	.quad	0
	.long	10                              # 0xa
	.zero	4
	.quad	__unnamed_171
	.quad	8                               # 0x8
	.quad	__strdata17281684659875913144_3
	.quad	9                               # 0x9
	.quad	0
	.long	10                              # 0xa
	.zero	4
	.quad	__unnamed_172
	.quad	8                               # 0x8
	.quad	__strdata17281684659875913144_3
	.quad	9                               # 0x9
	.quad	0
	.long	9                               # 0x9
	.zero	4
	.quad	__unnamed_173
	.quad	8                               # 0x8
	.quad	__strdata823881105282296765_2
	.quad	4                               # 0x4
	.quad	0
	.long	10                              # 0xa
	.zero	4
	.quad	__unnamed_174
	.quad	8                               # 0x8
	.quad	__strdata972053816693496108_4
	.quad	43                              # 0x2b
	.quad	0
	.long	10                              # 0xa
	.zero	4
	.quad	__unnamed_175
	.quad	8                               # 0x8
	.quad	__strdata14543872009358861776_2
	.quad	56                              # 0x38
	.quad	0
	.long	10                              # 0xa
	.zero	4
	.quad	__unnamed_176
	.quad	8                               # 0x8
	.quad	__strdata11860691118558235393_4
	.quad	44                              # 0x2c
	.quad	0
	.long	10                              # 0xa
	.zero	4
	.quad	__unnamed_177
	.quad	8                               # 0x8
	.quad	__strdata13224953376089641712_4
	.quad	42                              # 0x2a
	.quad	0
	.long	10                              # 0xa
	.zero	4
	.quad	__unnamed_178
	.quad	8                               # 0x8
	.quad	__strdata14543872009358861776_2
	.quad	56                              # 0x38
	.quad	0
	.long	10                              # 0xa
	.zero	4
	.quad	__unnamed_179
	.quad	8                               # 0x8
	.quad	__strdata2194067661868274174_4
	.quad	12                              # 0xc
	.quad	0
	.long	10                              # 0xa
	.zero	4
	.quad	__unnamed_180
	.quad	8                               # 0x8
	.quad	__strdata9886959002096921096_5
	.quad	8                               # 0x8
	.quad	0
	.long	10                              # 0xa
	.zero	4
	.quad	__unnamed_181
	.quad	8                               # 0x8
	.quad	__strdata16240920094209002000_1
	.quad	11                              # 0xb
	.quad	0
	.long	10                              # 0xa
	.zero	4
	.quad	__unnamed_182
	.quad	8                               # 0x8
	.quad	__strdata7443886559412140370_3
	.quad	23                              # 0x17
	.quad	0
	.long	10                              # 0xa
	.zero	4
	.quad	__unnamed_183
	.quad	8                               # 0x8
	.quad	__strdata14665255890566864400_2
	.quad	35                              # 0x23
	.quad	0
	.long	9                               # 0x9
	.zero	4
	.quad	__unnamed_184
	.quad	8                               # 0x8
	.quad	__strdata823881105282296765_2
	.quad	4                               # 0x4
	.quad	0
	.zero	48
	.long	9                               # 0x9
	.zero	4
	.quad	__unnamed_185
	.quad	8                               # 0x8
	.quad	__strdata823881105282296765_2
	.quad	4                               # 0x4
	.quad	0
	.zero	48
	.long	9                               # 0x9
	.zero	4
	.quad	__unnamed_186
	.quad	8                               # 0x8
	.quad	__strdata823881105282296765_2
	.quad	4                               # 0x4
	.quad	0
	.zero	48
	.long	9                               # 0x9
	.zero	4
	.quad	__unnamed_187
	.quad	8                               # 0x8
	.quad	__strdata823881105282296765_2
	.quad	4                               # 0x4
	.quad	0
	.zero	48
	.long	9                               # 0x9
	.zero	4
	.quad	__unnamed_188
	.quad	8                               # 0x8
	.quad	__strdata823881105282296765_2
	.quad	4                               # 0x4
	.quad	0
	.zero	48
	.zero	48
	.long	9                               # 0x9
	.zero	4
	.quad	__unnamed_189
	.quad	8                               # 0x8
	.quad	__strdata823881105282296765_2
	.quad	4                               # 0x4
	.quad	0
	.zero	48
	.long	9                               # 0x9
	.zero	4
	.quad	__unnamed_190
	.quad	8                               # 0x8
	.quad	__strdata823881105282296765_2
	.quad	4                               # 0x4
	.quad	0
	.zero	48
	.zero	48
	.zero	48
	.zero	48
	.zero	48
	.zero	48
	.zero	48
	.long	9                               # 0x9
	.zero	4
	.quad	__unnamed_191
	.quad	8                               # 0x8
	.quad	__strdata823881105282296765_2
	.quad	4                               # 0x4
	.quad	0
	.zero	48
	.zero	48
	.long	10                              # 0xa
	.zero	4
	.quad	__unnamed_192
	.quad	8                               # 0x8
	.quad	__strdata17281684659875913144_3
	.quad	9                               # 0x9
	.quad	0
	.long	9                               # 0x9
	.zero	4
	.quad	__unnamed_193
	.quad	8                               # 0x8
	.quad	__strdata16515216123556879851_1
	.quad	5                               # 0x5
	.quad	0
	.long	9                               # 0x9
	.zero	4
	.quad	__unnamed_194
	.quad	8                               # 0x8
	.quad	__strdata16515216123556879851_1
	.quad	5                               # 0x5
	.quad	0
	.long	10                              # 0xa
	.zero	4
	.quad	__unnamed_195
	.quad	8                               # 0x8
	.quad	__strdata9455081163233015340_5
	.quad	58                              # 0x3a
	.quad	0
	.long	9                               # 0x9
	.zero	4
	.quad	__unnamed_196
	.quad	8                               # 0x8
	.quad	__strdata16515216123556879851_1
	.quad	5                               # 0x5
	.quad	0
	.long	9                               # 0x9
	.zero	4
	.quad	__unnamed_197
	.quad	8                               # 0x8
	.quad	__strdata16515216123556879851_1
	.quad	5                               # 0x5
	.quad	0
	.long	10                              # 0xa
	.zero	4
	.quad	__unnamed_198
	.quad	8                               # 0x8
	.quad	__strdata11092777476075682570_6
	.quad	52                              # 0x34
	.quad	0
	.long	10                              # 0xa
	.zero	4
	.quad	__unnamed_199
	.quad	8                               # 0x8
	.quad	__strdata1253270635421661283_3
	.quad	18                              # 0x12
	.quad	0
	.long	10                              # 0xa
	.zero	4
	.quad	__unnamed_200
	.quad	8                               # 0x8
	.quad	__strdata1253270635421661283_3
	.quad	18                              # 0x12
	.quad	0
	.long	10                              # 0xa
	.zero	4
	.quad	__unnamed_201
	.quad	8                               # 0x8
	.quad	__strdata6207116119091047519_3
	.quad	75                              # 0x4b
	.quad	0
	.long	4                               # 0x4
	.zero	4
	.quad	__unnamed_202
	.quad	24                              # 0x18
	.quad	__strdata6677372211632227350_4
	.quad	14                              # 0xe
	.quad	0
	.long	10                              # 0xa
	.zero	4
	.quad	__unnamed_203
	.quad	8                               # 0x8
	.quad	__strdata14247415082332783841_1
	.quad	40                              # 0x28
	.quad	0
	.long	4                               # 0x4
	.zero	4
	.quad	__unnamed_204
	.quad	24                              # 0x18
	.quad	__strdata6677372211632227350_4
	.quad	14                              # 0xe
	.quad	0
	.long	10                              # 0xa
	.zero	4
	.quad	__unnamed_205
	.quad	8                               # 0x8
	.quad	__strdata14247415082332783841_1
	.quad	40                              # 0x28
	.quad	0
	.long	10                              # 0xa
	.zero	4
	.quad	__unnamed_206
	.quad	8                               # 0x8
	.quad	__strdata9886959002096921096_5
	.quad	8                               # 0x8
	.quad	0
	.long	9                               # 0x9
	.zero	4
	.quad	__unnamed_207
	.quad	8                               # 0x8
	.quad	__strdata8388526415985249796_1
	.quad	34                              # 0x22
	.quad	0
	.long	10                              # 0xa
	.zero	4
	.quad	__unnamed_208
	.quad	8                               # 0x8
	.quad	__strdata18055271852901658225_1
	.quad	43                              # 0x2b
	.quad	0
	.long	10                              # 0xa
	.zero	4
	.quad	__unnamed_209
	.quad	8                               # 0x8
	.quad	__strdata7026889466077970603_2
	.quad	22                              # 0x16
	.quad	0
	.long	4                               # 0x4
	.zero	4
	.quad	__unnamed_210
	.quad	24                              # 0x18
	.quad	__strdata6677372211632227350_4
	.quad	14                              # 0xe
	.quad	0
	.long	10                              # 0xa
	.zero	4
	.quad	__unnamed_211
	.quad	8                               # 0x8
	.quad	__strdata9033200301732158371_1
	.quad	55                              # 0x37
	.quad	0
	.long	9                               # 0x9
	.zero	4
	.quad	__unnamed_212
	.quad	8                               # 0x8
	.quad	__strdata823881105282296765_2
	.quad	4                               # 0x4
	.quad	0
	.long	10                              # 0xa
	.zero	4
	.quad	__unnamed_213
	.quad	8                               # 0x8
	.quad	__strdata17092556064844047731_1
	.quad	33                              # 0x21
	.quad	0
	.long	9                               # 0x9
	.zero	4
	.quad	__unnamed_214
	.quad	8                               # 0x8
	.quad	__strdata16515216123556879851_1
	.quad	5                               # 0x5
	.quad	0
	.long	10                              # 0xa
	.zero	4
	.quad	__unnamed_215
	.quad	8                               # 0x8
	.quad	__strdata301224973279304359_2
	.quad	34                              # 0x22
	.quad	0
	.long	9                               # 0x9
	.zero	4
	.quad	__unnamed_216
	.quad	8                               # 0x8
	.quad	__strdata15679190948121571242_2
	.quad	3                               # 0x3
	.quad	0
	.long	10                              # 0xa
	.zero	4
	.quad	__unnamed_217
	.quad	8                               # 0x8
	.quad	__strdata8318214683985213434_2
	.quad	21                              # 0x15
	.quad	0
	.long	10                              # 0xa
	.zero	4
	.quad	__unnamed_218
	.quad	8                               # 0x8
	.quad	__strdata8380456937734310232_6
	.quad	21                              # 0x15
	.quad	0
	.long	9                               # 0x9
	.zero	4
	.quad	__unnamed_219
	.quad	8                               # 0x8
	.quad	__strdata8388526415985249796_1
	.quad	34                              # 0x22
	.quad	0
	.long	10                              # 0xa
	.zero	4
	.quad	__unnamed_220
	.quad	8                               # 0x8
	.quad	__strdata18055271852901658225_1
	.quad	43                              # 0x2b
	.quad	0
	.long	9                               # 0x9
	.zero	4
	.quad	__unnamed_221
	.quad	8                               # 0x8
	.quad	__strdata8388526415985249796_1
	.quad	34                              # 0x22
	.quad	0
	.long	4                               # 0x4
	.zero	4
	.quad	__unnamed_222
	.quad	24                              # 0x18
	.quad	__strdata6677372211632227350_4
	.quad	14                              # 0xe
	.quad	0
	.long	10                              # 0xa
	.zero	4
	.quad	__unnamed_223
	.quad	8                               # 0x8
	.quad	__strdata17598880278352926922_3
	.quad	76                              # 0x4c
	.quad	0
	.long	9                               # 0x9
	.zero	4
	.quad	__unnamed_224
	.quad	8                               # 0x8
	.quad	__strdata8388526415985249796_1
	.quad	34                              # 0x22
	.quad	0
	.long	10                              # 0xa
	.zero	4
	.quad	__unnamed_225
	.quad	8                               # 0x8
	.quad	__strdata12305973516642187522_3
	.quad	57                              # 0x39
	.quad	0
	.long	9                               # 0x9
	.zero	4
	.quad	__unnamed_226
	.quad	8                               # 0x8
	.quad	__strdata8388526415985249796_1
	.quad	34                              # 0x22
	.quad	0
	.long	9                               # 0x9
	.zero	4
	.quad	__unnamed_227
	.quad	8                               # 0x8
	.quad	__strdata823881105282296765_2
	.quad	4                               # 0x4
	.quad	0
	.long	10                              # 0xa
	.zero	4
	.quad	__unnamed_228
	.quad	8                               # 0x8
	.quad	__strdata13247671048510030314_1
	.quad	54                              # 0x36
	.quad	0
	.long	9                               # 0x9
	.zero	4
	.quad	__unnamed_229
	.quad	8                               # 0x8
	.quad	__strdata8388526415985249796_1
	.quad	34                              # 0x22
	.quad	0
	.long	10                              # 0xa
	.zero	4
	.quad	__unnamed_230
	.quad	8                               # 0x8
	.quad	__strdata5116006441133304847_2
	.quad	48                              # 0x30
	.quad	0
	.long	9                               # 0x9
	.zero	4
	.quad	__unnamed_231
	.quad	8                               # 0x8
	.quad	__strdata8388526415985249796_1
	.quad	34                              # 0x22
	.quad	0
	.long	10                              # 0xa
	.zero	4
	.quad	__unnamed_232
	.quad	8                               # 0x8
	.quad	__strdata5178713950098140497_3
	.quad	60                              # 0x3c
	.quad	0
	.long	9                               # 0x9
	.zero	4
	.quad	__unnamed_233
	.quad	8                               # 0x8
	.quad	__strdata8388526415985249796_1
	.quad	34                              # 0x22
	.quad	0
	.long	10                              # 0xa
	.zero	4
	.quad	__unnamed_234
	.quad	8                               # 0x8
	.quad	__strdata13350073003721546098_7
	.quad	48                              # 0x30
	.quad	0
	.long	9                               # 0x9
	.zero	4
	.quad	__unnamed_235
	.quad	8                               # 0x8
	.quad	__strdata8388526415985249796_1
	.quad	34                              # 0x22
	.quad	0
	.long	10                              # 0xa
	.zero	4
	.quad	__unnamed_236
	.quad	8                               # 0x8
	.quad	__strdata6239417278003823041_1
	.quad	49                              # 0x31
	.quad	0
	.long	9                               # 0x9
	.zero	4
	.quad	__unnamed_237
	.quad	8                               # 0x8
	.quad	__strdata8388526415985249796_1
	.quad	34                              # 0x22
	.quad	0
	.long	10                              # 0xa
	.zero	4
	.quad	__unnamed_238
	.quad	8                               # 0x8
	.quad	__strdata18055271852901658225_1
	.quad	43                              # 0x2b
	.quad	0
	.long	9                               # 0x9
	.zero	4
	.quad	__unnamed_239
	.quad	8                               # 0x8
	.quad	__strdata8388526415985249796_1
	.quad	34                              # 0x22
	.quad	0
	.long	10                              # 0xa
	.zero	4
	.quad	__unnamed_240
	.quad	8                               # 0x8
	.quad	__strdata18055271852901658225_1
	.quad	43                              # 0x2b
	.quad	0
	.long	10                              # 0xa
	.zero	4
	.quad	__unnamed_241
	.quad	8                               # 0x8
	.quad	__strdata7469774862639740573_2
	.quad	53                              # 0x35
	.quad	0
	.long	9                               # 0x9
	.zero	4
	.quad	__unnamed_242
	.quad	8                               # 0x8
	.quad	__strdata15679190948121571242_2
	.quad	3                               # 0x3
	.quad	0
	.long	9                               # 0x9
	.zero	4
	.quad	__unnamed_243
	.quad	8                               # 0x8
	.quad	__strdata16515216123556879851_1
	.quad	5                               # 0x5
	.quad	0
	.long	9                               # 0x9
	.zero	4
	.quad	__unnamed_244
	.quad	8                               # 0x8
	.quad	__strdata15679190948121571242_2
	.quad	3                               # 0x3
	.quad	0
	.long	9                               # 0x9
	.zero	4
	.quad	__unnamed_245
	.quad	8                               # 0x8
	.quad	__strdata16515216123556879851_1
	.quad	5                               # 0x5
	.quad	0
	.long	9                               # 0x9
	.zero	4
	.quad	__unnamed_246
	.quad	8                               # 0x8
	.quad	__strdata15679190948121571242_2
	.quad	3                               # 0x3
	.quad	0
	.long	9                               # 0x9
	.zero	4
	.quad	__unnamed_247
	.quad	8                               # 0x8
	.quad	__strdata16515216123556879851_1
	.quad	5                               # 0x5
	.quad	0
	.long	9                               # 0x9
	.zero	4
	.quad	__unnamed_248
	.quad	8                               # 0x8
	.quad	__strdata15679190948121571242_2
	.quad	3                               # 0x3
	.quad	0
	.long	9                               # 0x9
	.zero	4
	.quad	__unnamed_249
	.quad	8                               # 0x8
	.quad	__strdata16515216123556879851_1
	.quad	5                               # 0x5
	.quad	0
	.long	9                               # 0x9
	.zero	4
	.quad	__unnamed_250
	.quad	8                               # 0x8
	.quad	__strdata344767278474836716_2
	.quad	19                              # 0x13
	.quad	0
	.long	9                               # 0x9
	.zero	4
	.quad	__unnamed_251
	.quad	8                               # 0x8
	.quad	__strdata344767278474836716_2
	.quad	19                              # 0x13
	.quad	0
	.long	9                               # 0x9
	.zero	4
	.quad	__unnamed_252
	.quad	8                               # 0x8
	.quad	__strdata344767278474836716_2
	.quad	19                              # 0x13
	.quad	0
	.long	9                               # 0x9
	.zero	4
	.quad	__unnamed_253
	.quad	8                               # 0x8
	.quad	__strdata344767278474836716_2
	.quad	19                              # 0x13
	.quad	0
	.long	9                               # 0x9
	.zero	4
	.quad	__unnamed_254
	.quad	8                               # 0x8
	.quad	__strdata16515216123556879851_1
	.quad	5                               # 0x5
	.quad	0
	.long	9                               # 0x9
	.zero	4
	.quad	__unnamed_255
	.quad	8                               # 0x8
	.quad	__strdata3321026878675140539_0
	.quad	6                               # 0x6
	.quad	0
	.long	9                               # 0x9
	.zero	4
	.quad	__unnamed_256
	.quad	8                               # 0x8
	.quad	__strdata15679190948121571242_2
	.quad	3                               # 0x3
	.quad	0
	.long	9                               # 0x9
	.zero	4
	.quad	__unnamed_257
	.quad	8                               # 0x8
	.quad	__strdata16515216123556879851_1
	.quad	5                               # 0x5
	.quad	0
	.long	9                               # 0x9
	.zero	4
	.quad	__unnamed_258
	.quad	8                               # 0x8
	.quad	__strdata16515216123556879851_1
	.quad	5                               # 0x5
	.quad	0
	.long	9                               # 0x9
	.zero	4
	.quad	__unnamed_259
	.quad	8                               # 0x8
	.quad	__strdata3321026878675140539_0
	.quad	6                               # 0x6
	.quad	0
	.long	9                               # 0x9
	.zero	4
	.quad	__unnamed_260
	.quad	8                               # 0x8
	.quad	__strdata16515216123556879851_1
	.quad	5                               # 0x5
	.quad	0
	.long	9                               # 0x9
	.zero	4
	.quad	__unnamed_261
	.quad	8                               # 0x8
	.quad	__strdata3321026878675140539_0
	.quad	6                               # 0x6
	.quad	0
	.long	9                               # 0x9
	.zero	4
	.quad	__unnamed_262
	.quad	8                               # 0x8
	.quad	__strdata15679190948121571242_2
	.quad	3                               # 0x3
	.quad	0
	.long	9                               # 0x9
	.zero	4
	.quad	__unnamed_263
	.quad	8                               # 0x8
	.quad	__strdata16515216123556879851_1
	.quad	5                               # 0x5
	.quad	0
	.long	9                               # 0x9
	.zero	4
	.quad	__unnamed_264
	.quad	8                               # 0x8
	.quad	__strdata16515216123556879851_1
	.quad	5                               # 0x5
	.quad	0
	.long	9                               # 0x9
	.zero	4
	.quad	__unnamed_265
	.quad	8                               # 0x8
	.quad	__strdata3321026878675140539_0
	.quad	6                               # 0x6
	.quad	0
	.long	9                               # 0x9
	.zero	4
	.quad	__unnamed_266
	.quad	8                               # 0x8
	.quad	__strdata15679190948121571242_2
	.quad	3                               # 0x3
	.quad	0
	.long	9                               # 0x9
	.zero	4
	.quad	__unnamed_267
	.quad	8                               # 0x8
	.quad	__strdata16515216123556879851_1
	.quad	5                               # 0x5
	.quad	0
	.long	9                               # 0x9
	.zero	4
	.quad	__unnamed_268
	.quad	8                               # 0x8
	.quad	__strdata15679190948121571242_2
	.quad	3                               # 0x3
	.quad	0
	.long	9                               # 0x9
	.zero	4
	.quad	__unnamed_269
	.quad	8                               # 0x8
	.quad	__strdata16515216123556879851_1
	.quad	5                               # 0x5
	.quad	0
	.long	13                              # 0xd
	.zero	4
	.zero	8
	.quad	0                               # 0x0
	.quad	__strdata2055580414287477511_0
	.quad	4                               # 0x4
	.quad	0
	.long	9                               # 0x9
	.zero	4
	.quad	__unnamed_270
	.quad	8                               # 0x8
	.quad	__strdata11704849286799784231_3
	.quad	16                              # 0x10
	.quad	0
	.long	9                               # 0x9
	.zero	4
	.quad	__unnamed_271
	.quad	8                               # 0x8
	.quad	__strdata11704849286799784231_3
	.quad	16                              # 0x10
	.quad	0
	.long	4                               # 0x4
	.zero	4
	.quad	__unnamed_272
	.quad	96                              # 0x60
	.quad	__strdata3401314670901795160_7
	.quad	15                              # 0xf
	.quad	0
	.long	9                               # 0x9
	.zero	4
	.quad	__unnamed_273
	.quad	8                               # 0x8
	.quad	__strdata15679190948121571242_2
	.quad	3                               # 0x3
	.quad	0
	.long	9                               # 0x9
	.zero	4
	.quad	__unnamed_274
	.quad	8                               # 0x8
	.quad	__strdata16515216123556879851_1
	.quad	5                               # 0x5
	.quad	0
	.long	4                               # 0x4
	.zero	4
	.quad	__unnamed_275
	.quad	96                              # 0x60
	.quad	__strdata3401314670901795160_7
	.quad	15                              # 0xf
	.quad	0
	.long	9                               # 0x9
	.zero	4
	.quad	__unnamed_276
	.quad	8                               # 0x8
	.quad	__strdata16515216123556879851_1
	.quad	5                               # 0x5
	.quad	0
	.long	9                               # 0x9
	.zero	4
	.quad	__unnamed_277
	.quad	8                               # 0x8
	.quad	__strdata15679190948121571242_2
	.quad	3                               # 0x3
	.quad	0
	.long	9                               # 0x9
	.zero	4
	.quad	__unnamed_278
	.quad	8                               # 0x8
	.quad	__strdata16515216123556879851_1
	.quad	5                               # 0x5
	.quad	0
	.long	9                               # 0x9
	.zero	4
	.quad	__unnamed_279
	.quad	8                               # 0x8
	.quad	__strdata804671537629606808_3
	.quad	4                               # 0x4
	.quad	0
	.long	9                               # 0x9
	.zero	4
	.quad	__unnamed_280
	.quad	8                               # 0x8
	.quad	__strdata804671537629606808_3
	.quad	4                               # 0x4
	.quad	0
	.long	9                               # 0x9
	.zero	4
	.quad	__unnamed_281
	.quad	8                               # 0x8
	.quad	__strdata16515216123556879851_1
	.quad	5                               # 0x5
	.quad	0
	.long	9                               # 0x9
	.zero	4
	.quad	__unnamed_282
	.quad	8                               # 0x8
	.quad	__strdata16515216123556879851_1
	.quad	5                               # 0x5
	.quad	0
	.long	9                               # 0x9
	.zero	4
	.quad	__unnamed_283
	.quad	8                               # 0x8
	.quad	__strdata804671537629606808_3
	.quad	4                               # 0x4
	.quad	0
	.long	9                               # 0x9
	.zero	4
	.quad	__unnamed_284
	.quad	8                               # 0x8
	.quad	__strdata804668239094722209_0
	.quad	4                               # 0x4
	.quad	0
	.long	9                               # 0x9
	.zero	4
	.quad	__unnamed_285
	.quad	8                               # 0x8
	.quad	__strdata16515216123556879851_1
	.quad	5                               # 0x5
	.quad	0
	.long	13                              # 0xd
	.zero	4
	.zero	8
	.quad	0                               # 0x0
	.quad	__strdata5957045100754887228_1
	.quad	18                              # 0x12
	.quad	0
	.long	9                               # 0x9
	.zero	4
	.quad	__unnamed_286
	.quad	8                               # 0x8
	.quad	__strdata16515216123556879851_1
	.quad	5                               # 0x5
	.quad	0
	.long	9                               # 0x9
	.zero	4
	.quad	__unnamed_287
	.quad	8                               # 0x8
	.quad	__strdata14289670632262389506_4
	.quad	19                              # 0x13
	.quad	0
	.long	9                               # 0x9
	.zero	4
	.quad	__unnamed_288
	.quad	8                               # 0x8
	.quad	__strdata16515216123556879851_1
	.quad	5                               # 0x5
	.quad	0
	.long	9                               # 0x9
	.zero	4
	.quad	__unnamed_289
	.quad	8                               # 0x8
	.quad	__strdata16515216123556879851_1
	.quad	5                               # 0x5
	.quad	0
	.long	9                               # 0x9
	.zero	4
	.quad	__unnamed_290
	.quad	8                               # 0x8
	.quad	__strdata14289670632262389506_4
	.quad	19                              # 0x13
	.quad	0
	.long	9                               # 0x9
	.zero	4
	.quad	__unnamed_291
	.quad	8                               # 0x8
	.quad	__strdata16515216123556879851_1
	.quad	5                               # 0x5
	.quad	0
	.long	9                               # 0x9
	.zero	4
	.quad	__unnamed_292
	.quad	8                               # 0x8
	.quad	__strdata16515216123556879851_1
	.quad	5                               # 0x5
	.quad	0
	.long	9                               # 0x9
	.zero	4
	.quad	__unnamed_293
	.quad	8                               # 0x8
	.quad	__strdata16515216123556879851_1
	.quad	5                               # 0x5
	.quad	0
	.long	9                               # 0x9
	.zero	4
	.quad	__unnamed_294
	.quad	8                               # 0x8
	.quad	__strdata13578408568009724352_2
	.quad	27                              # 0x1b
	.quad	0
	.long	9                               # 0x9
	.zero	4
	.quad	__unnamed_295
	.quad	8                               # 0x8
	.quad	__strdata8388526415985249796_1
	.quad	34                              # 0x22
	.quad	0
	.long	9                               # 0x9
	.zero	4
	.quad	__unnamed_296
	.quad	8                               # 0x8
	.quad	__strdata823881105282296765_2
	.quad	4                               # 0x4
	.quad	0
	.long	9                               # 0x9
	.zero	4
	.quad	__unnamed_297
	.quad	8                               # 0x8
	.quad	__strdata8388526415985249796_1
	.quad	34                              # 0x22
	.quad	0
	.long	9                               # 0x9
	.zero	4
	.quad	__unnamed_298
	.quad	8                               # 0x8
	.quad	__strdata16515216123556879851_1
	.quad	5                               # 0x5
	.quad	0
	.long	9                               # 0x9
	.zero	4
	.quad	__unnamed_299
	.quad	8                               # 0x8
	.quad	__strdata16515216123556879851_1
	.quad	5                               # 0x5
	.quad	0
	.long	15                              # 0xf
	.zero	4
	.quad	__unnamed_300
	.quad	24                              # 0x18
	.quad	__strdata4200291041532627154_4
	.quad	23                              # 0x17
	.quad	0
	.long	9                               # 0x9
	.zero	4
	.quad	__unnamed_301
	.quad	8                               # 0x8
	.quad	__strdata16515216123556879851_1
	.quad	5                               # 0x5
	.quad	0
	.long	10                              # 0xa
	.zero	4
	.quad	__unnamed_302
	.quad	8                               # 0x8
	.quad	__strdata4333619797850255813_2
	.quad	33                              # 0x21
	.quad	0
	.long	9                               # 0x9
	.zero	4
	.quad	__unnamed_303
	.quad	8                               # 0x8
	.quad	__strdata15679190948121571242_2
	.quad	3                               # 0x3
	.quad	0
	.long	9                               # 0x9
	.zero	4
	.quad	__unnamed_304
	.quad	8                               # 0x8
	.quad	__strdata804670438117978575_2
	.quad	4                               # 0x4
	.quad	0
	.long	9                               # 0x9
	.zero	4
	.quad	__unnamed_305
	.quad	8                               # 0x8
	.quad	__strdata804668239094722209_0
	.quad	4                               # 0x4
	.quad	0
	.long	9                               # 0x9
	.zero	4
	.quad	__unnamed_306
	.quad	8                               # 0x8
	.quad	__strdata804671537629606808_3
	.quad	4                               # 0x4
	.quad	0
	.long	9                               # 0x9
	.zero	4
	.quad	__unnamed_307
	.quad	8                               # 0x8
	.quad	__strdata15679190948121571242_2
	.quad	3                               # 0x3
	.quad	0
	.long	9                               # 0x9
	.zero	4
	.quad	__unnamed_308
	.quad	8                               # 0x8
	.quad	__strdata804670438117978575_2
	.quad	4                               # 0x4
	.quad	0
	.long	9                               # 0x9
	.zero	4
	.quad	__unnamed_309
	.quad	8                               # 0x8
	.quad	__strdata804668239094722209_0
	.quad	4                               # 0x4
	.quad	0
	.long	9                               # 0x9
	.zero	4
	.quad	__unnamed_310
	.quad	8                               # 0x8
	.quad	__strdata804671537629606808_3
	.quad	4                               # 0x4
	.quad	0
	.long	4                               # 0x4
	.zero	4
	.quad	__unnamed_311
	.quad	24                              # 0x18
	.quad	__strdata471693655279356169_2
	.quad	5                               # 0x5
	.quad	0
	.long	4                               # 0x4
	.zero	4
	.quad	__unnamed_312
	.quad	100                             # 0x64
	.quad	__strdata2432189697866640664_4
	.quad	8                               # 0x8
	.quad	0
	.long	9                               # 0x9
	.zero	4
	.quad	__unnamed_313
	.quad	8                               # 0x8
	.quad	__strdata807500581048426106_3
	.quad	4                               # 0x4
	.quad	0
	.long	9                               # 0x9
	.zero	4
	.quad	__unnamed_314
	.quad	8                               # 0x8
	.quad	__strdata807506078606567155_2
	.quad	4                               # 0x4
	.quad	0
	.long	9                               # 0x9
	.zero	4
	.quad	__unnamed_315
	.quad	8                               # 0x8
	.quad	__strdata807500581048426106_3
	.quad	4                               # 0x4
	.quad	0
	.long	9                               # 0x9
	.zero	4
	.quad	__unnamed_316
	.quad	8                               # 0x8
	.quad	__strdata807506078606567155_2
	.quad	4                               # 0x4
	.quad	0
	.long	9                               # 0x9
	.zero	4
	.quad	__unnamed_317
	.quad	8                               # 0x8
	.quad	__strdata16515216123556879851_1
	.quad	5                               # 0x5
	.quad	0
	.long	9                               # 0x9
	.zero	4
	.quad	__unnamed_318
	.quad	8                               # 0x8
	.quad	__strdata16515216123556879851_1
	.quad	5                               # 0x5
	.quad	0
	.long	9                               # 0x9
	.zero	4
	.quad	__unnamed_319
	.quad	8                               # 0x8
	.quad	__strdata16515216123556879851_1
	.quad	5                               # 0x5
	.quad	0
	.long	9                               # 0x9
	.zero	4
	.quad	__unnamed_320
	.quad	8                               # 0x8
	.quad	__strdata11704849286799784231_3
	.quad	16                              # 0x10
	.quad	0
	.long	9                               # 0x9
	.zero	4
	.quad	__unnamed_321
	.quad	8                               # 0x8
	.quad	__strdata8971671353550161577_3
	.quad	5                               # 0x5
	.quad	0
	.long	9                               # 0x9
	.zero	4
	.quad	__unnamed_322
	.quad	8                               # 0x8
	.quad	__strdata823881105282296765_2
	.quad	4                               # 0x4
	.quad	0
	.long	9                               # 0x9
	.zero	4
	.quad	__unnamed_323
	.quad	8                               # 0x8
	.quad	__strdata16515216123556879851_1
	.quad	5                               # 0x5
	.quad	0
	.long	9                               # 0x9
	.zero	4
	.quad	__unnamed_324
	.quad	8                               # 0x8
	.quad	__strdata16515216123556879851_1
	.quad	5                               # 0x5
	.quad	0
	.long	9                               # 0x9
	.zero	4
	.quad	__unnamed_325
	.quad	8                               # 0x8
	.quad	__strdata3321026878675140539_0
	.quad	6                               # 0x6
	.quad	0
	.long	9                               # 0x9
	.zero	4
	.quad	__unnamed_326
	.quad	8                               # 0x8
	.quad	__strdata15679190948121571242_2
	.quad	3                               # 0x3
	.quad	0
	.long	9                               # 0x9
	.zero	4
	.quad	__unnamed_327
	.quad	8                               # 0x8
	.quad	__strdata16515216123556879851_1
	.quad	5                               # 0x5
	.quad	0
	.long	9                               # 0x9
	.zero	4
	.quad	__unnamed_328
	.quad	8                               # 0x8
	.quad	__strdata804671537629606808_3
	.quad	4                               # 0x4
	.quad	0
	.long	9                               # 0x9
	.zero	4
	.quad	__unnamed_329
	.quad	8                               # 0x8
	.quad	__strdata804671537629606808_3
	.quad	4                               # 0x4
	.quad	0
	.long	9                               # 0x9
	.zero	4
	.quad	__unnamed_330
	.quad	8                               # 0x8
	.quad	__strdata15679190948121571242_2
	.quad	3                               # 0x3
	.quad	0
	.long	9                               # 0x9
	.zero	4
	.quad	__unnamed_331
	.quad	8                               # 0x8
	.quad	__strdata16515216123556879851_1
	.quad	5                               # 0x5
	.quad	0
	.long	9                               # 0x9
	.zero	4
	.quad	__unnamed_332
	.quad	8                               # 0x8
	.quad	__strdata823881105282296765_2
	.quad	4                               # 0x4
	.quad	0
	.long	9                               # 0x9
	.zero	4
	.quad	__unnamed_333
	.quad	8                               # 0x8
	.quad	__strdata823881105282296765_2
	.quad	4                               # 0x4
	.quad	0
	.long	9                               # 0x9
	.zero	4
	.quad	__unnamed_334
	.quad	8                               # 0x8
	.quad	__strdata823881105282296765_2
	.quad	4                               # 0x4
	.quad	0
	.long	9                               # 0x9
	.zero	4
	.quad	__unnamed_335
	.quad	8                               # 0x8
	.quad	__strdata15679190948121571242_2
	.quad	3                               # 0x3
	.quad	0
	.long	9                               # 0x9
	.zero	4
	.quad	__unnamed_336
	.quad	8                               # 0x8
	.quad	__strdata16515216123556879851_1
	.quad	5                               # 0x5
	.quad	0
	.long	9                               # 0x9
	.zero	4
	.quad	__unnamed_337
	.quad	8                               # 0x8
	.quad	__strdata823881105282296765_2
	.quad	4                               # 0x4
	.quad	0
	.long	9                               # 0x9
	.zero	4
	.quad	__unnamed_338
	.quad	8                               # 0x8
	.quad	__strdata823881105282296765_2
	.quad	4                               # 0x4
	.quad	0
	.long	9                               # 0x9
	.zero	4
	.quad	__unnamed_339
	.quad	8                               # 0x8
	.quad	__strdata823881105282296765_2
	.quad	4                               # 0x4
	.quad	0
	.long	9                               # 0x9
	.zero	4
	.quad	__unnamed_340
	.quad	8                               # 0x8
	.quad	__strdata15679190948121571242_2
	.quad	3                               # 0x3
	.quad	0
	.long	9                               # 0x9
	.zero	4
	.quad	__unnamed_341
	.quad	8                               # 0x8
	.quad	__strdata16515216123556879851_1
	.quad	5                               # 0x5
	.quad	0
	.long	9                               # 0x9
	.zero	4
	.quad	__unnamed_342
	.quad	8                               # 0x8
	.quad	__strdata823881105282296765_2
	.quad	4                               # 0x4
	.quad	0
	.long	9                               # 0x9
	.zero	4
	.quad	__unnamed_343
	.quad	8                               # 0x8
	.quad	__strdata823881105282296765_2
	.quad	4                               # 0x4
	.quad	0
	.long	9                               # 0x9
	.zero	4
	.quad	__unnamed_344
	.quad	8                               # 0x8
	.quad	__strdata804671537629606808_3
	.quad	4                               # 0x4
	.quad	0
	.long	9                               # 0x9
	.zero	4
	.quad	__unnamed_345
	.quad	8                               # 0x8
	.quad	__strdata15679190948121571242_2
	.quad	3                               # 0x3
	.quad	0
	.long	9                               # 0x9
	.zero	4
	.quad	__unnamed_346
	.quad	8                               # 0x8
	.quad	__strdata16515216123556879851_1
	.quad	5                               # 0x5
	.quad	0
	.long	9                               # 0x9
	.zero	4
	.quad	__unnamed_347
	.quad	8                               # 0x8
	.quad	__strdata804671537629606808_3
	.quad	4                               # 0x4
	.quad	0
	.long	9                               # 0x9
	.zero	4
	.quad	__unnamed_348
	.quad	8                               # 0x8
	.quad	__strdata15679190948121571242_2
	.quad	3                               # 0x3
	.quad	0
	.long	9                               # 0x9
	.zero	4
	.quad	__unnamed_349
	.quad	8                               # 0x8
	.quad	__strdata16515216123556879851_1
	.quad	5                               # 0x5
	.quad	0
	.long	9                               # 0x9
	.zero	4
	.quad	__unnamed_350
	.quad	8                               # 0x8
	.quad	__strdata804668239094722209_0
	.quad	4                               # 0x4
	.quad	0
	.long	4                               # 0x4
	.zero	4
	.quad	__unnamed_351
	.quad	32                              # 0x20
	.quad	__strdata8733744512045632396_3
	.quad	15                              # 0xf
	.quad	0
	.long	9                               # 0x9
	.zero	4
	.quad	__unnamed_352
	.quad	8                               # 0x8
	.quad	__strdata16515216123556879851_1
	.quad	5                               # 0x5
	.quad	0
	.long	9                               # 0x9
	.zero	4
	.quad	__unnamed_353
	.quad	8                               # 0x8
	.quad	__strdata3321026878675140539_0
	.quad	6                               # 0x6
	.quad	0
	.long	9                               # 0x9
	.zero	4
	.quad	__unnamed_354
	.quad	8                               # 0x8
	.quad	__strdata16515216123556879851_1
	.quad	5                               # 0x5
	.quad	0
	.long	4                               # 0x4
	.zero	4
	.quad	__unnamed_355
	.quad	24                              # 0x18
	.quad	__strdata471693655279356169_2
	.quad	5                               # 0x5
	.quad	0
	.long	4                               # 0x4
	.zero	4
	.quad	__unnamed_356
	.quad	100                             # 0x64
	.quad	__strdata2432189697866640664_4
	.quad	8                               # 0x8
	.quad	0
	.long	9                               # 0x9
	.zero	4
	.quad	__unnamed_357
	.quad	8                               # 0x8
	.quad	__strdata16515216123556879851_1
	.quad	5                               # 0x5
	.quad	0
	.long	9                               # 0x9
	.zero	4
	.quad	__unnamed_358
	.quad	8                               # 0x8
	.quad	__strdata16515216123556879851_1
	.quad	5                               # 0x5
	.quad	0
	.long	9                               # 0x9
	.zero	4
	.quad	__unnamed_359
	.quad	8                               # 0x8
	.quad	__strdata16515216123556879851_1
	.quad	5                               # 0x5
	.quad	0
	.long	9                               # 0x9
	.zero	4
	.quad	__unnamed_360
	.quad	8                               # 0x8
	.quad	__strdata8388526415985249796_1
	.quad	34                              # 0x22
	.quad	0
	.long	9                               # 0x9
	.zero	4
	.quad	__unnamed_361
	.quad	8                               # 0x8
	.quad	__strdata16515216123556879851_1
	.quad	5                               # 0x5
	.quad	0
	.long	9                               # 0x9
	.zero	4
	.quad	__unnamed_362
	.quad	8                               # 0x8
	.quad	__strdata8388526415985249796_1
	.quad	34                              # 0x22
	.quad	0
	.long	9                               # 0x9
	.zero	4
	.quad	__unnamed_363
	.quad	8                               # 0x8
	.quad	__strdata823881105282296765_2
	.quad	4                               # 0x4
	.quad	0
	.long	9                               # 0x9
	.zero	4
	.quad	__unnamed_364
	.quad	8                               # 0x8
	.quad	__strdata8388526415985249796_1
	.quad	34                              # 0x22
	.quad	0
	.long	9                               # 0x9
	.zero	4
	.quad	__unnamed_365
	.quad	8                               # 0x8
	.quad	__strdata16515216123556879851_1
	.quad	5                               # 0x5
	.quad	0
	.long	9                               # 0x9
	.zero	4
	.quad	__unnamed_366
	.quad	8                               # 0x8
	.quad	__strdata8388526415985249796_1
	.quad	34                              # 0x22
	.quad	0
	.long	9                               # 0x9
	.zero	4
	.quad	__unnamed_367
	.quad	8                               # 0x8
	.quad	__strdata8388526415985249796_1
	.quad	34                              # 0x22
	.quad	0
	.long	9                               # 0x9
	.zero	4
	.quad	__unnamed_368
	.quad	8                               # 0x8
	.quad	__strdata8388526415985249796_1
	.quad	34                              # 0x22
	.quad	0
	.long	9                               # 0x9
	.zero	4
	.quad	__unnamed_369
	.quad	8                               # 0x8
	.quad	__strdata8388526415985249796_1
	.quad	34                              # 0x22
	.quad	0
	.long	9                               # 0x9
	.zero	4
	.quad	__unnamed_370
	.quad	8                               # 0x8
	.quad	__strdata16515216123556879851_1
	.quad	5                               # 0x5
	.quad	0

	.section	.rdata,"dr"
	.globl	__strdata15619023472814530097_0 # @__strdata15619023472814530097_0
	.p2align	3
__strdata15619023472814530097_0:
	.asciz	"i32"

	.globl	__strdata590638987843676794_0   # @__strdata590638987843676794_0
	.p2align	3
__strdata590638987843676794_0:
	.asciz	"i8"

	.globl	__strdata15619025671837786463_0 # @__strdata15619025671837786463_0
	.p2align	3
__strdata15619025671837786463_0:
	.asciz	"i16"

	.globl	__strdata15619026771349414696_2 # @__strdata15619026771349414696_2
	.p2align	3
__strdata15619026771349414696_2:
	.asciz	"i64"

	.globl	__strdata15607450013418251725_1 # @__strdata15607450013418251725_1
	.p2align	3
__strdata15607450013418251725_1:
	.asciz	"ui8"

	.globl	__strdata9334348488207854650_0  # @__strdata9334348488207854650_0
	.p2align	3
__strdata9334348488207854650_0:
	.asciz	"ui16"

	.globl	__strdata9334350687231110976_0  # @__strdata9334350687231110976_0
	.p2align	3
__strdata9334350687231110976_0:
	.asciz	"ui32"

	.globl	__strdata9334347388696226413_1  # @__strdata9334347388696226413_1
	.p2align	3
__strdata9334347388696226413_1:
	.asciz	"ui64"

	.globl	__strdata15621861312326374915_0 # @__strdata15621861312326374915_0
	.p2align	3
__strdata15621861312326374915_0:
	.asciz	"f64"

	.globl	__strdata15621855814768233866_0 # @__strdata15621855814768233866_0
	.p2align	3
__strdata15621855814768233866_0:
	.asciz	"f32"

	.globl	__strdata2815635419282886937_0  # @__strdata2815635419282886937_0
	.p2align	3
__strdata2815635419282886937_0:
	.asciz	"bool"

	.globl	__strdata8771555764879172219_0  # @__strdata8771555764879172219_0
	.p2align	3
__strdata8771555764879172219_0:
	.asciz	"void"

	.globl	__strdata11423379122722415671_0 # @__strdata11423379122722415671_0
	.p2align	3
__strdata11423379122722415671_0:
	.asciz	"prelude::string"

	.globl	__unnamed_12                    # @11
	.p2align	4
__unnamed_12:
	.zero	16
	.quad	2                               # 0x2
	.quad	__unnamed_371
	.quad	32                              # 0x20

	.data
	.globl	__unnamed_371                   # @12
	.p2align	4
__unnamed_371:
	.quad	__strdata1504123655843379741_0
	.quad	4                               # 0x4
	.quad	__typeTable+3888
	.quad	0                               # 0x0
	.quad	__strdata15616140553325928522_0
	.quad	3                               # 0x3
	.quad	__typeTable+192
	.quad	8                               # 0x8

	.section	.rdata,"dr"
	.globl	__strdata1504123655843379741_0  # @__strdata1504123655843379741_0
	.p2align	3
__strdata1504123655843379741_0:
	.asciz	"data"

	.globl	__strdata15616140553325928522_0 # @__strdata15616140553325928522_0
	.p2align	3
__strdata15616140553325928522_0:
	.asciz	"len"

	.globl	__strdata15254514312748677504_0 # @__strdata15254514312748677504_0
	.p2align	3
__strdata15254514312748677504_0:
	.asciz	"prelude::TypeInfo"

	.globl	__unnamed_13                    # @13
	.p2align	4
__unnamed_13:
	.zero	16
	.quad	5                               # 0x5
	.quad	__unnamed_372
	.quad	32                              # 0x20

	.data
	.globl	__unnamed_372                   # @14
	.p2align	4
__unnamed_372:
	.quad	__strdata15576145158031686967_1
	.quad	4                               # 0x4
	.quad	__typeTable+2448
	.quad	0                               # 0x0
	.quad	__strdata10079113684504389437_0
	.quad	4                               # 0x4
	.quad	__typeTable+1632
	.quad	8                               # 0x8
	.quad	__strdata10597921544666823538_0
	.quad	4                               # 0x4
	.quad	__typeTable+192
	.quad	16                              # 0x10
	.quad	__strdata13709268971822177140_1
	.quad	4                               # 0x4
	.quad	__typeTable+1536
	.quad	24                              # 0x18
	.quad	__strdata1218993457327852611_0
	.quad	12                              # 0xc
	.quad	__typeTable+3936
	.quad	40                              # 0x28

	.section	.rdata,"dr"
	.globl	__strdata15576145158031686967_1 # @__strdata15576145158031686967_1
	.p2align	3
__strdata15576145158031686967_1:
	.asciz	"kind"

	.globl	__strdata10079113684504389437_0 # @__strdata10079113684504389437_0
	.p2align	3
__strdata10079113684504389437_0:
	.asciz	"type"

	.globl	__strdata10597921544666823538_0 # @__strdata10597921544666823538_0
	.p2align	3
__strdata10597921544666823538_0:
	.asciz	"size"

	.globl	__strdata13709268971822177140_1 # @__strdata13709268971822177140_1
	.p2align	3
__strdata13709268971822177140_1:
	.asciz	"name"

	.globl	__strdata1218993457327852611_0  # @__strdata1218993457327852611_0
	.p2align	3
__strdata1218993457327852611_0:
	.asciz	"toStringFunc"

	.globl	__strdata9051509512464452953_0  # @__strdata9051509512464452953_0
	.p2align	3
__strdata9051509512464452953_0:
	.asciz	"prelude::TypeUnion"

	.globl	__strdata3340617818257337827_1  # @__strdata3340617818257337827_1
	.p2align	3
__strdata3340617818257337827_1:
	.asciz	"prelude::TypeInfoStruct"

	.globl	__unnamed_14                    # @15
	.p2align	4
__unnamed_14:
	.zero	16
	.quad	2                               # 0x2
	.quad	__unnamed_373
	.quad	32                              # 0x20

	.data
	.globl	__unnamed_373                   # @16
	.p2align	4
__unnamed_373:
	.quad	__strdata13709268971822177140_1
	.quad	4                               # 0x4
	.quad	__typeTable+1536
	.quad	0                               # 0x0
	.quad	__strdata7756295184137563385_0
	.quad	5                               # 0x5
	.quad	__typeTable+4416
	.quad	16                              # 0x10

	.section	.rdata,"dr"
	.globl	__strdata7756295184137563385_0  # @__strdata7756295184137563385_0
	.p2align	3
__strdata7756295184137563385_0:
	.asciz	"membs"

	.globl	__strdata13924775967332107232_0 # @__strdata13924775967332107232_0
	.p2align	3
__strdata13924775967332107232_0:
	.asciz	"prelude::TypeInfoStructMemb"

	.globl	__unnamed_15                    # @17
	.p2align	4
__unnamed_15:
	.zero	16
	.quad	3                               # 0x3
	.quad	__unnamed_374
	.quad	32                              # 0x20

	.data
	.globl	__unnamed_374                   # @18
	.p2align	4
__unnamed_374:
	.quad	__strdata13709268971822177140_1
	.quad	4                               # 0x4
	.quad	__typeTable+1536
	.quad	0                               # 0x0
	.quad	__strdata10079113684504389437_0
	.quad	4                               # 0x4
	.quad	__typeTable+4464
	.quad	16                              # 0x10
	.quad	__strdata10485882421086741164_1
	.quad	6                               # 0x6
	.quad	__typeTable+384
	.quad	24                              # 0x18

	.section	.rdata,"dr"
	.globl	__strdata10485882421086741164_1 # @__strdata10485882421086741164_1
	.p2align	3
__strdata10485882421086741164_1:
	.asciz	"offset"

	.globl	__strdata17684791903689264477_0 # @__strdata17684791903689264477_0
	.p2align	3
__strdata17684791903689264477_0:
	.asciz	"prelude::TypeInfoUnion"

	.globl	__unnamed_16                    # @19
	.p2align	4
__unnamed_16:
	.zero	16
	.quad	2                               # 0x2
	.quad	__unnamed_375
	.quad	32                              # 0x20

	.data
	.globl	__unnamed_375                   # @20
	.p2align	4
__unnamed_375:
	.quad	__strdata13709268971822177140_1
	.quad	4                               # 0x4
	.quad	__typeTable+1536
	.quad	0                               # 0x0
	.quad	__strdata7756295184137563385_0
	.quad	5                               # 0x5
	.quad	__typeTable+4512
	.quad	16                              # 0x10

	.section	.rdata,"dr"
	.globl	__strdata5304302150619416902_0  # @__strdata5304302150619416902_0
	.p2align	3
__strdata5304302150619416902_0:
	.asciz	"prelude::TypeInfoUnionMemb"

	.globl	__unnamed_17                    # @21
	.p2align	4
__unnamed_17:
	.zero	16
	.quad	2                               # 0x2
	.quad	__unnamed_376
	.quad	32                              # 0x20

	.data
	.globl	__unnamed_376                   # @22
	.p2align	4
__unnamed_376:
	.quad	__strdata13709268971822177140_1
	.quad	4                               # 0x4
	.quad	__typeTable+1536
	.quad	0                               # 0x0
	.quad	__strdata10079113684504389437_0
	.quad	4                               # 0x4
	.quad	__typeTable+4560
	.quad	16                              # 0x10

	.section	.rdata,"dr"
	.globl	__strdata15471130927900995209_0 # @__strdata15471130927900995209_0
	.p2align	3
__strdata15471130927900995209_0:
	.asciz	"prelude::TypeInfoTaggedUnion"

	.globl	__unnamed_18                    # @23
	.p2align	4
__unnamed_18:
	.zero	16
	.quad	5                               # 0x5
	.quad	__unnamed_377
	.quad	32                              # 0x20

	.data
	.globl	__unnamed_377                   # @24
	.p2align	4
__unnamed_377:
	.quad	__strdata13709268971822177140_1
	.quad	4                               # 0x4
	.quad	__typeTable+1536
	.quad	0                               # 0x0
	.quad	__strdata7756295184137563385_0
	.quad	5                               # 0x5
	.quad	__typeTable+4608
	.quad	16                              # 0x10
	.quad	__strdata855920885719976576_1
	.quad	16                              # 0x10
	.quad	__typeTable+192
	.quad	40                              # 0x28
	.quad	__strdata11441599033517357630_0
	.quad	18                              # 0x12
	.quad	__typeTable+192
	.quad	48                              # 0x30
	.quad	__strdata5718858718929674972_0
	.quad	17                              # 0x11
	.quad	__typeTable+192
	.quad	56                              # 0x38

	.section	.rdata,"dr"
	.globl	__strdata855920885719976576_1   # @__strdata855920885719976576_1
	.p2align	3
__strdata855920885719976576_1:
	.asciz	"kindMemberOffset"

	.globl	__strdata11441599033517357630_0 # @__strdata11441599033517357630_0
	.p2align	3
__strdata11441599033517357630_0:
	.asciz	"indexInUnionOffset"

	.globl	__strdata5718858718929674972_0  # @__strdata5718858718929674972_0
	.p2align	3
__strdata5718858718929674972_0:
	.asciz	"indexInEnumOffset"

	.globl	__strdata5970851590628670703_0  # @__strdata5970851590628670703_0
	.p2align	3
__strdata5970851590628670703_0:
	.asciz	"prelude::TypeInfoArray"

	.globl	__unnamed_19                    # @25
	.p2align	4
__unnamed_19:
	.zero	16
	.quad	3                               # 0x3
	.quad	__unnamed_378
	.quad	32                              # 0x20

	.data
	.globl	__unnamed_378                   # @26
	.p2align	4
__unnamed_378:
	.quad	__strdata16841995247758186601_0
	.quad	7                               # 0x7
	.quad	__typeTable+576
	.quad	0                               # 0x0
	.quad	__strdata5284115865867368678_0
	.quad	8                               # 0x8
	.quad	__typeTable+4656
	.quad	8                               # 0x8
	.quad	__strdata10597921544666823538_0
	.quad	4                               # 0x4
	.quad	__typeTable+192
	.quad	16                              # 0x10

	.section	.rdata,"dr"
	.globl	__strdata16841995247758186601_0 # @__strdata16841995247758186601_0
	.p2align	3
__strdata16841995247758186601_0:
	.asciz	"isSlice"

	.globl	__strdata5284115865867368678_0  # @__strdata5284115865867368678_0
	.p2align	3
__strdata5284115865867368678_0:
	.asciz	"baseType"

	.globl	__strdata1520842166302801531_1  # @__strdata1520842166302801531_1
	.p2align	3
__strdata1520842166302801531_1:
	.asciz	"prelude::TypeInfoPointer"

	.globl	__unnamed_20                    # @27
	.p2align	4
__unnamed_20:
	.zero	16
	.quad	1                               # 0x1
	.quad	__unnamed_379
	.quad	32                              # 0x20

	.data
	.globl	__unnamed_379                   # @28
	.p2align	4
__unnamed_379:
	.quad	__strdata5284115865867368678_0
	.quad	8                               # 0x8
	.quad	__typeTable+4704
	.quad	0                               # 0x0

	.section	.rdata,"dr"
	.globl	__strdata8344292570398295375_0  # @__strdata8344292570398295375_0
	.p2align	3
__strdata8344292570398295375_0:
	.asciz	"prelude::TypeInfoEnum"

	.globl	__unnamed_21                    # @29
	.p2align	4
__unnamed_21:
	.zero	16
	.quad	5                               # 0x5
	.quad	__unnamed_380
	.quad	32                              # 0x20

	.data
	.globl	__unnamed_380                   # @30
	.p2align	4
__unnamed_380:
	.quad	__strdata13709268971822177140_1
	.quad	4                               # 0x4
	.quad	__typeTable+1536
	.quad	0                               # 0x0
	.quad	__strdata7756295184137563385_0
	.quad	5                               # 0x5
	.quad	__typeTable+4752
	.quad	16                              # 0x10
	.quad	__strdata11071549876777120196_0
	.quad	8                               # 0x8
	.quad	__typeTable+192
	.quad	40                              # 0x28
	.quad	__strdata10653811164954700834_0
	.quad	8                               # 0x8
	.quad	__typeTable+192
	.quad	48                              # 0x30
	.quad	__strdata11852451511975562808_0
	.quad	10                              # 0xa
	.quad	__typeTable+576
	.quad	56                              # 0x38

	.section	.rdata,"dr"
	.globl	__strdata11071549876777120196_0 # @__strdata11071549876777120196_0
	.p2align	3
__strdata11071549876777120196_0:
	.asciz	"maxValue"

	.globl	__strdata10653811164954700834_0 # @__strdata10653811164954700834_0
	.p2align	3
__strdata10653811164954700834_0:
	.asciz	"minValue"

	.globl	__strdata11852451511975562808_0 # @__strdata11852451511975562808_0
	.p2align	3
__strdata11852451511975562808_0:
	.asciz	"isFlagEnum"

	.globl	__strdata8084014427508824548_0  # @__strdata8084014427508824548_0
	.p2align	3
__strdata8084014427508824548_0:
	.asciz	"prelude::TypeInfoEnumMemb"

	.globl	__unnamed_22                    # @31
	.p2align	4
__unnamed_22:
	.zero	16
	.quad	3                               # 0x3
	.quad	__unnamed_381
	.quad	32                              # 0x20

	.data
	.globl	__unnamed_381                   # @32
	.p2align	4
__unnamed_381:
	.quad	__strdata13709268971822177140_1
	.quad	4                               # 0x4
	.quad	__typeTable+1536
	.quad	0                               # 0x0
	.quad	__strdata16862384265727779848_0
	.quad	6                               # 0x6
	.quad	__typeTable+4800
	.quad	16                              # 0x10
	.quad	__strdata15606570404115872210_0
	.quad	3                               # 0x3
	.quad	__typeTable
	.quad	24                              # 0x18

	.section	.rdata,"dr"
	.globl	__strdata16862384265727779848_0 # @__strdata16862384265727779848_0
	.p2align	3
__strdata16862384265727779848_0:
	.asciz	"myEnum"

	.globl	__strdata15606570404115872210_0 # @__strdata15606570404115872210_0
	.p2align	3
__strdata15606570404115872210_0:
	.asciz	"val"

	.globl	__strdata8848730913094478162_1  # @__strdata8848730913094478162_1
	.p2align	3
__strdata8848730913094478162_1:
	.asciz	"prelude::TypeInfoFunc"

	.globl	__unnamed_23                    # @33
	.p2align	4
__unnamed_23:
	.zero	16
	.quad	2                               # 0x2
	.quad	__unnamed_382
	.quad	32                              # 0x20

	.data
	.globl	__unnamed_382                   # @34
	.p2align	4
__unnamed_382:
	.quad	__strdata2263022449186350367_0
	.quad	6                               # 0x6
	.quad	__typeTable+4896
	.quad	0                               # 0x0
	.quad	__strdata8170309113937158930_0
	.quad	7                               # 0x7
	.quad	__typeTable+4944
	.quad	24                              # 0x18

	.section	.rdata,"dr"
	.globl	__strdata2263022449186350367_0  # @__strdata2263022449186350367_0
	.p2align	3
__strdata2263022449186350367_0:
	.asciz	"params"

	.globl	__strdata8170309113937158930_0  # @__strdata8170309113937158930_0
	.p2align	3
__strdata8170309113937158930_0:
	.asciz	"retType"

	.globl	__strdata6936744544989295375_0  # @__strdata6936744544989295375_0
	.p2align	3
__strdata6936744544989295375_0:
	.asciz	"prelude::TypeInfoAliased"

	.globl	__unnamed_24                    # @35
	.p2align	4
__unnamed_24:
	.zero	16
	.quad	2                               # 0x2
	.quad	__unnamed_383
	.quad	32                              # 0x20

	.data
	.globl	__unnamed_383                   # @36
	.p2align	4
__unnamed_383:
	.quad	__strdata13709268971822177140_1
	.quad	4                               # 0x4
	.quad	__typeTable+1536
	.quad	0                               # 0x0
	.quad	__strdata5284115865867368678_0
	.quad	8                               # 0x8
	.quad	__typeTable+4992
	.quad	16                              # 0x10

	.section	.rdata,"dr"
	.globl	__strdata9212496234100565074_2  # @__strdata9212496234100565074_2
	.p2align	3
__strdata9212496234100565074_2:
	.asciz	"prelude::TypeInfoTuple"

	.globl	__unnamed_25                    # @37
	.p2align	4
__unnamed_25:
	.zero	16
	.quad	2                               # 0x2
	.quad	__unnamed_384
	.quad	32                              # 0x20

	.data
	.globl	__unnamed_384                   # @38
	.p2align	4
__unnamed_384:
	.quad	__strdata6314170000265915604_0
	.quad	5                               # 0x5
	.quad	__typeTable+5088
	.quad	0                               # 0x0
	.quad	__strdata12174542439945644599_2
	.quad	7                               # 0x7
	.quad	__typeTable+5136
	.quad	24                              # 0x18

	.section	.rdata,"dr"
	.globl	__strdata6314170000265915604_0  # @__strdata6314170000265915604_0
	.p2align	3
__strdata6314170000265915604_0:
	.asciz	"types"

	.globl	__strdata12174542439945644599_2 # @__strdata12174542439945644599_2
	.p2align	3
__strdata12174542439945644599_2:
	.asciz	"offsets"

	.globl	__strdata2191593908404634858_0  # @__strdata2191593908404634858_0
	.p2align	3
__strdata2191593908404634858_0:
	.asciz	"prelude::any"

	.globl	__unnamed_26                    # @39
	.p2align	4
__unnamed_26:
	.zero	16
	.quad	2                               # 0x2
	.quad	__unnamed_385
	.quad	32                              # 0x20

	.data
	.globl	__unnamed_385                   # @40
	.p2align	4
__unnamed_385:
	.quad	__strdata10079113684504389437_0
	.quad	4                               # 0x4
	.quad	__typeTable+5184
	.quad	0                               # 0x0
	.quad	__strdata1504123655843379741_0
	.quad	4                               # 0x4
	.quad	__typeTable+5232
	.quad	8                               # 0x8

	.section	.rdata,"dr"
	.globl	__strdata16891895168827899804_0 # @__strdata16891895168827899804_0
	.p2align	3
__strdata16891895168827899804_0:
	.asciz	"prelude::ArrayView"

	.globl	__unnamed_27                    # @41
	.p2align	4
__unnamed_27:
	.zero	16
	.quad	3                               # 0x3
	.quad	__unnamed_386
	.quad	32                              # 0x20

	.data
	.globl	__unnamed_386                   # @42
	.p2align	4
__unnamed_386:
	.quad	__strdata15616140553325928522_0
	.quad	3                               # 0x3
	.quad	__typeTable+192
	.quad	0                               # 0x0
	.quad	__strdata1504123655843379741_0
	.quad	4                               # 0x4
	.quad	__typeTable+5280
	.quad	8                               # 0x8
	.quad	__strdata13481840202566189239_3
	.quad	8                               # 0x8
	.quad	__typeTable+192
	.quad	16                              # 0x10

	.section	.rdata,"dr"
	.globl	__strdata13481840202566189239_3 # @__strdata13481840202566189239_3
	.p2align	3
__strdata13481840202566189239_3:
	.asciz	"elemSize"

	.globl	__strdata10755795708941580517_0 # @__strdata10755795708941580517_0
	.p2align	3
__strdata10755795708941580517_0:
	.asciz	"prelude::NamespaceInfo"

	.globl	__unnamed_28                    # @43
	.p2align	4
__unnamed_28:
	.zero	16
	.quad	2                               # 0x2
	.quad	__unnamed_387
	.quad	32                              # 0x20

	.data
	.globl	__unnamed_387                   # @44
	.p2align	4
__unnamed_387:
	.quad	__strdata2177932003715706715_0
	.quad	8                               # 0x8
	.quad	__typeTable+1536
	.quad	0                               # 0x0
	.quad	__strdata13918806325065724034_0
	.quad	5                               # 0x5
	.quad	__typeTable+5328
	.quad	16                              # 0x10

	.section	.rdata,"dr"
	.globl	__strdata2177932003715706715_0  # @__strdata2177932003715706715_0
	.p2align	3
__strdata2177932003715706715_0:
	.asciz	"fullName"

	.globl	__strdata13918806325065724034_0 # @__strdata13918806325065724034_0
	.p2align	3
__strdata13918806325065724034_0:
	.asciz	"files"

	.globl	__strdata12304584334753793091_1 # @__strdata12304584334753793091_1
	.p2align	3
__strdata12304584334753793091_1:
	.asciz	"prelude::range"

	.globl	__unnamed_29                    # @45
	.p2align	4
__unnamed_29:
	.zero	16
	.quad	2                               # 0x2
	.quad	__unnamed_388
	.quad	32                              # 0x20

	.data
	.globl	__unnamed_388                   # @46
	.p2align	4
__unnamed_388:
	.quad	__strdata6474067605260878071_0
	.quad	5                               # 0x5
	.quad	__typeTable+192
	.quad	0                               # 0x0
	.quad	__strdata15622888256186934852_1
	.quad	3                               # 0x3
	.quad	__typeTable+192
	.quad	8                               # 0x8

	.section	.rdata,"dr"
	.globl	__strdata6474067605260878071_0  # @__strdata6474067605260878071_0
	.p2align	3
__strdata6474067605260878071_0:
	.asciz	"start"

	.globl	__strdata15622888256186934852_1 # @__strdata15622888256186934852_1
	.p2align	3
__strdata15622888256186934852_1:
	.asciz	"end"

	.globl	__strdata16584017384957006154_1 # @__strdata16584017384957006154_1
	.p2align	3
__strdata16584017384957006154_1:
	.asciz	"prelude::TypeKind"

	.globl	__unnamed_30                    # @47
	.p2align	4
__unnamed_30:
	.zero	16
	.quad	16                              # 0x10
	.quad	__unnamed_389
	.quad	32                              # 0x20
	.quad	15                              # 0xf
	.quad	0                               # 0x0
	.byte	0                               # 0x0
	.zero	7

	.data
	.globl	__unnamed_389                   # @48
	.p2align	4
__unnamed_389:
	.quad	__strdata3964811400143363219_0
	.quad	8                               # 0x8
	.quad	__typeTable+2448
	.long	0                               # 0x0
	.zero	4
	.quad	__strdata4988227156157886118_0
	.quad	10                              # 0xa
	.quad	__typeTable+2448
	.long	1                               # 0x1
	.zero	4
	.quad	__strdata14384109023094451051_0
	.quad	11                              # 0xb
	.quad	__typeTable+2448
	.long	2                               # 0x2
	.zero	4
	.quad	__strdata14205335586672263752_0
	.quad	9                               # 0x9
	.quad	__typeTable+2448
	.long	3                               # 0x3
	.zero	4
	.quad	__strdata13774534347300044327_0
	.quad	10                              # 0xa
	.quad	__typeTable+2448
	.long	4                               # 0x4
	.zero	4
	.quad	__strdata16092155814301919303_1
	.quad	9                               # 0x9
	.quad	__typeTable+2448
	.long	5                               # 0x5
	.zero	4
	.quad	__strdata14388081558606420379_0
	.quad	11                              # 0xb
	.quad	__typeTable+2448
	.long	6                               # 0x6
	.zero	4
	.quad	__strdata15609125188985928517_0
	.quad	10                              # 0xa
	.quad	__typeTable+2448
	.long	7                               # 0x7
	.zero	4
	.quad	__strdata15846768231010770072_0
	.quad	17                              # 0x11
	.quad	__typeTable+2448
	.long	8                               # 0x8
	.zero	4
	.quad	__strdata9706478803626083091_1
	.quad	12                              # 0xc
	.quad	__typeTable+2448
	.long	9                               # 0x9
	.zero	4
	.quad	__strdata16612057688534233882_1
	.quad	9                               # 0x9
	.quad	__typeTable+2448
	.long	10                              # 0xa
	.zero	4
	.quad	__strdata13643007859155143974_1
	.quad	13                              # 0xd
	.quad	__typeTable+2448
	.long	11                              # 0xb
	.zero	4
	.quad	__strdata8249388852796901590_0
	.quad	9                               # 0x9
	.quad	__typeTable+2448
	.long	12                              # 0xc
	.zero	4
	.quad	__strdata7391857335509724253_1
	.quad	14                              # 0xe
	.quad	__typeTable+2448
	.long	13                              # 0xd
	.zero	4
	.quad	__strdata5227497810657530071_0
	.quad	12                              # 0xc
	.quad	__typeTable+2448
	.long	14                              # 0xe
	.zero	4
	.quad	__strdata15397715464219498794_0
	.quad	10                              # 0xa
	.quad	__typeTable+2448
	.long	15                              # 0xf
	.zero	4

	.section	.rdata,"dr"
	.globl	__strdata3964811400143363219_0  # @__strdata3964811400143363219_0
	.p2align	3
__strdata3964811400143363219_0:
	.asciz	"TYPE_INT"

	.globl	__strdata4988227156157886118_0  # @__strdata4988227156157886118_0
	.p2align	3
__strdata4988227156157886118_0:
	.asciz	"TYPE_FLOAT"

	.globl	__strdata14384109023094451051_0 # @__strdata14384109023094451051_0
	.p2align	3
__strdata14384109023094451051_0:
	.asciz	"TYPE_STRING"

	.globl	__strdata14205335586672263752_0 # @__strdata14205335586672263752_0
	.p2align	3
__strdata14205335586672263752_0:
	.asciz	"TYPE_BOOL"

	.globl	__strdata13774534347300044327_0 # @__strdata13774534347300044327_0
	.p2align	3
__strdata13774534347300044327_0:
	.asciz	"TYPE_ARRAY"

	.globl	__strdata16092155814301919303_1 # @__strdata16092155814301919303_1
	.p2align	3
__strdata16092155814301919303_1:
	.asciz	"TYPE_ENUM"

	.globl	__strdata14388081558606420379_0 # @__strdata14388081558606420379_0
	.p2align	3
__strdata14388081558606420379_0:
	.asciz	"TYPE_STRUCT"

	.globl	__strdata15609125188985928517_0 # @__strdata15609125188985928517_0
	.p2align	3
__strdata15609125188985928517_0:
	.asciz	"TYPE_UNION"

	.globl	__strdata15846768231010770072_0 # @__strdata15846768231010770072_0
	.p2align	3
__strdata15846768231010770072_0:
	.asciz	"TYPE_TAGGED_UNION"

	.globl	__strdata9706478803626083091_1  # @__strdata9706478803626083091_1
	.p2align	3
__strdata9706478803626083091_1:
	.asciz	"TYPE_POINTER"

	.globl	__strdata16612057688534233882_1 # @__strdata16612057688534233882_1
	.p2align	3
__strdata16612057688534233882_1:
	.asciz	"TYPE_FUNC"

	.globl	__strdata13643007859155143974_1 # @__strdata13643007859155143974_1
	.p2align	3
__strdata13643007859155143974_1:
	.asciz	"TYPE_OPERFUNC"

	.globl	__strdata8249388852796901590_0  # @__strdata8249388852796901590_0
	.p2align	3
__strdata8249388852796901590_0:
	.asciz	"TYPE_VOID"

	.globl	__strdata7391857335509724253_1  # @__strdata7391857335509724253_1
	.p2align	3
__strdata7391857335509724253_1:
	.asciz	"TYPE_NAMESPACE"

	.globl	__strdata5227497810657530071_0  # @__strdata5227497810657530071_0
	.p2align	3
__strdata5227497810657530071_0:
	.asciz	"TYPE_ALIASED"

	.globl	__strdata15397715464219498794_0 # @__strdata15397715464219498794_0
	.p2align	3
__strdata15397715464219498794_0:
	.asciz	"TYPE_TUPLE"

	.globl	__strdata17924015545111912961_0 # @__strdata17924015545111912961_0
	.p2align	3
__strdata17924015545111912961_0:
	.asciz	"(prelude::string, i64) : ui8"

	.globl	__unnamed_31                    # @49
	.p2align	4
__unnamed_31:
	.quad	2                               # 0x2
	.quad	__unnamed_390
	.quad	8                               # 0x8
	.quad	__typeTable+240

	.data
	.globl	__unnamed_390                   # @50
	.p2align	3
__unnamed_390:
	.quad	__typeTable+1536
	.quad	__typeTable+192

	.section	.rdata,"dr"
	.globl	__strdata16716023734102834686_0 # @__strdata16716023734102834686_0
	.p2align	3
__strdata16716023734102834686_0:
	.asciz	"(prelude::string, prelude::string) : bool"

	.globl	__unnamed_32                    # @51
	.p2align	4
__unnamed_32:
	.quad	2                               # 0x2
	.quad	__unnamed_391
	.quad	8                               # 0x8
	.quad	__typeTable+576

	.data
	.globl	__unnamed_391                   # @52
	.p2align	3
__unnamed_391:
	.quad	__typeTable+1536
	.quad	__typeTable+1536

	.section	.rdata,"dr"
	.globl	__unnamed_33                    # @53
	.p2align	4
__unnamed_33:
	.quad	2                               # 0x2
	.quad	__unnamed_392
	.quad	8                               # 0x8
	.quad	__typeTable+576

	.data
	.globl	__unnamed_392                   # @54
	.p2align	3
__unnamed_392:
	.quad	__typeTable+1536
	.quad	__typeTable+1536

	.section	.rdata,"dr"
	.globl	__strdata14621370817184343422_1 # @__strdata14621370817184343422_1
	.p2align	3
__strdata14621370817184343422_1:
	.asciz	"(prelude::string, prelude::string) : prelude::string"

	.globl	__unnamed_34                    # @55
	.p2align	4
__unnamed_34:
	.quad	2                               # 0x2
	.quad	__unnamed_393
	.quad	8                               # 0x8
	.quad	__typeTable+1536

	.data
	.globl	__unnamed_393                   # @56
	.p2align	3
__unnamed_393:
	.quad	__typeTable+1536
	.quad	__typeTable+1536

	.section	.rdata,"dr"
	.globl	__strdata1794203741079866866_1  # @__strdata1794203741079866866_1
	.p2align	3
__strdata1794203741079866866_1:
	.asciz	"os::windows::DWORD"

	.globl	__unnamed_35                    # @57
	.p2align	4
__unnamed_35:
	.zero	16
	.quad	__typeTable+336

	.globl	__strdata4239809595497624582_0  # @__strdata4239809595497624582_0
	.p2align	3
__strdata4239809595497624582_0:
	.asciz	"os::windows::PDWORD"

	.globl	__unnamed_36                    # @58
	.p2align	4
__unnamed_36:
	.zero	16
	.quad	__typeTable+5376

	.globl	__strdata2082989817018855188_0  # @__strdata2082989817018855188_0
	.p2align	3
__strdata2082989817018855188_0:
	.asciz	"os::windows::LONG"

	.globl	__unnamed_37                    # @59
	.p2align	4
__unnamed_37:
	.zero	16
	.quad	__typeTable+144

	.globl	__strdata3904606428788120382_1  # @__strdata3904606428788120382_1
	.p2align	3
__strdata3904606428788120382_1:
	.asciz	"os::windows::LONGLONG"

	.globl	__unnamed_38                    # @60
	.p2align	4
__unnamed_38:
	.zero	16
	.quad	__typeTable+192

	.globl	__strdata7297919914740487152_0  # @__strdata7297919914740487152_0
	.p2align	3
__strdata7297919914740487152_0:
	.asciz	"os::windows::LARGE_INTEGER"

	.globl	__strdata16825853929091994280_3 # @__strdata16825853929091994280_3
	.p2align	3
__strdata16825853929091994280_3:
	.asciz	"os::windows::LARGE_INTEGER_U"

	.globl	__unnamed_39                    # @61
	.p2align	4
__unnamed_39:
	.zero	16
	.quad	2                               # 0x2
	.quad	__unnamed_394
	.quad	32                              # 0x20

	.data
	.globl	__unnamed_394                   # @62
	.p2align	4
__unnamed_394:
	.quad	__strdata13651060126510620006_1
	.quad	7                               # 0x7
	.quad	__typeTable+2688
	.quad	0                               # 0x0
	.quad	__strdata13671884800912692058_0
	.quad	8                               # 0x8
	.quad	__typeTable+2784
	.quad	4                               # 0x4

	.section	.rdata,"dr"
	.globl	__strdata13651060126510620006_1 # @__strdata13651060126510620006_1
	.p2align	3
__strdata13651060126510620006_1:
	.asciz	"LowPart"

	.globl	__strdata13671884800912692058_0 # @__strdata13671884800912692058_0
	.p2align	3
__strdata13671884800912692058_0:
	.asciz	"HighPart"

	.globl	__strdata2340620051528828746_2  # @__strdata2340620051528828746_2
	.p2align	3
__strdata2340620051528828746_2:
	.asciz	"os::windows::AccessRightsFlags"

	.globl	__unnamed_40                    # @63
	.p2align	4
__unnamed_40:
	.zero	16
	.quad	16                              # 0x10
	.quad	__unnamed_395
	.quad	32                              # 0x20
	.quad	2147483648                      # 0x80000000
	.quad	65535                           # 0xffff
	.byte	0                               # 0x0
	.zero	7

	.data
	.globl	__unnamed_395                   # @64
	.p2align	4
__unnamed_395:
	.quad	__strdata2165472437055946676_0
	.quad	6                               # 0x6
	.quad	__typeTable+2976
	.long	65536                           # 0x10000
	.zero	4
	.quad	__strdata4378218586654954771_2
	.quad	12                              # 0xc
	.quad	__typeTable+2976
	.long	131072                          # 0x20000
	.zero	4
	.quad	__strdata15421657537550777899_0
	.quad	9                               # 0x9
	.quad	__typeTable+2976
	.long	262144                          # 0x40000
	.zero	4
	.quad	__strdata1862795430368349430_0
	.quad	11                              # 0xb
	.quad	__typeTable+2976
	.long	524288                          # 0x80000
	.zero	4
	.quad	__strdata11313436709348446189_2
	.quad	11                              # 0xb
	.quad	__typeTable+2976
	.long	1048576                         # 0x100000
	.zero	4
	.quad	__strdata16652807424407192428_0
	.quad	24                              # 0x18
	.quad	__typeTable+2976
	.long	983040                          # 0xf0000
	.zero	4
	.quad	__strdata16072813310974279747_2
	.quad	20                              # 0x14
	.quad	__typeTable+2976
	.long	131072                          # 0x20000
	.zero	4
	.quad	__strdata13286732560439035968_1
	.quad	21                              # 0x15
	.quad	__typeTable+2976
	.long	131072                          # 0x20000
	.zero	4
	.quad	__strdata16244686147626043188_1
	.quad	23                              # 0x17
	.quad	__typeTable+2976
	.long	131072                          # 0x20000
	.zero	4
	.quad	__strdata17142897957776718208_2
	.quad	19                              # 0x13
	.quad	__typeTable+2976
	.long	2031616                         # 0x1f0000
	.zero	4
	.quad	__strdata2353080700288188841_0
	.quad	19                              # 0x13
	.quad	__typeTable+2976
	.long	65535                           # 0xffff
	.zero	4
	.quad	__strdata11603228482621726552_2
	.quad	15                              # 0xf
	.quad	__typeTable+2976
	.long	33554432                        # 0x2000000
	.zero	4
	.quad	__strdata13645092168853055860_2
	.quad	11                              # 0xb
	.quad	__typeTable+2976
	.long	268435456                       # 0x10000000
	.zero	4
	.quad	__strdata4720663242791500320_0
	.quad	15                              # 0xf
	.quad	__typeTable+2976
	.long	536870912                       # 0x20000000
	.zero	4
	.quad	__strdata1252833379403637292_2
	.quad	13                              # 0xd
	.quad	__typeTable+2976
	.long	1073741824                      # 0x40000000
	.zero	4
	.quad	__strdata6584389383364261023_1
	.quad	12                              # 0xc
	.quad	__typeTable+2976
	.long	2147483648                      # 0x80000000
	.zero	4

	.section	.rdata,"dr"
	.globl	__strdata2165472437055946676_0  # @__strdata2165472437055946676_0
	.p2align	3
__strdata2165472437055946676_0:
	.asciz	"DELETE"

	.globl	__strdata4378218586654954771_2  # @__strdata4378218586654954771_2
	.p2align	3
__strdata4378218586654954771_2:
	.asciz	"READ_CONTROL"

	.globl	__strdata15421657537550777899_0 # @__strdata15421657537550777899_0
	.p2align	3
__strdata15421657537550777899_0:
	.asciz	"WRITE_DAC"

	.globl	__strdata1862795430368349430_0  # @__strdata1862795430368349430_0
	.p2align	3
__strdata1862795430368349430_0:
	.asciz	"WRITE_OWNER"

	.globl	__strdata11313436709348446189_2 # @__strdata11313436709348446189_2
	.p2align	3
__strdata11313436709348446189_2:
	.asciz	"SYNCHRONIZE"

	.globl	__strdata16652807424407192428_0 # @__strdata16652807424407192428_0
	.p2align	3
__strdata16652807424407192428_0:
	.asciz	"STANDARD_RIGHTS_REQUIRED"

	.globl	__strdata16072813310974279747_2 # @__strdata16072813310974279747_2
	.p2align	3
__strdata16072813310974279747_2:
	.asciz	"STANDARD_RIGHTS_READ"

	.globl	__strdata13286732560439035968_1 # @__strdata13286732560439035968_1
	.p2align	3
__strdata13286732560439035968_1:
	.asciz	"STANDARD_RIGHTS_WRITE"

	.globl	__strdata16244686147626043188_1 # @__strdata16244686147626043188_1
	.p2align	3
__strdata16244686147626043188_1:
	.asciz	"STANDARD_RIGHTS_EXECUTE"

	.globl	__strdata17142897957776718208_2 # @__strdata17142897957776718208_2
	.p2align	3
__strdata17142897957776718208_2:
	.asciz	"STANDARD_RIGHTS_ALL"

	.globl	__strdata2353080700288188841_0  # @__strdata2353080700288188841_0
	.p2align	3
__strdata2353080700288188841_0:
	.asciz	"SPECIFIC_RIGHTS_ALL"

	.globl	__strdata11603228482621726552_2 # @__strdata11603228482621726552_2
	.p2align	3
__strdata11603228482621726552_2:
	.asciz	"MAXIMUM_ALLOWED"

	.globl	__strdata13645092168853055860_2 # @__strdata13645092168853055860_2
	.p2align	3
__strdata13645092168853055860_2:
	.asciz	"GENERIC_ALL"

	.globl	__strdata4720663242791500320_0  # @__strdata4720663242791500320_0
	.p2align	3
__strdata4720663242791500320_0:
	.asciz	"GENERIC_EXECUTE"

	.globl	__strdata1252833379403637292_2  # @__strdata1252833379403637292_2
	.p2align	3
__strdata1252833379403637292_2:
	.asciz	"GENERIC_WRITE"

	.globl	__strdata6584389383364261023_1  # @__strdata6584389383364261023_1
	.p2align	3
__strdata6584389383364261023_1:
	.asciz	"GENERIC_READ"

	.globl	__strdata2043441132040612162_0  # @__strdata2043441132040612162_0
	.p2align	3
__strdata2043441132040612162_0:
	.asciz	"os::windows::FileShareFlags"

	.globl	__unnamed_41                    # @65
	.p2align	4
__unnamed_41:
	.zero	16
	.quad	4                               # 0x4
	.quad	__unnamed_396
	.quad	32                              # 0x20
	.quad	4                               # 0x4
	.quad	0                               # 0x0
	.byte	0                               # 0x0
	.zero	7

	.data
	.globl	__unnamed_396                   # @66
	.p2align	4
__unnamed_396:
	.quad	__strdata15614161432395527090_0
	.quad	3                               # 0x3
	.quad	__typeTable+3024
	.long	0                               # 0x0
	.zero	4
	.quad	__strdata9774028892135780561_0
	.quad	4                               # 0x4
	.quad	__typeTable+3024
	.long	1                               # 0x1
	.zero	4
	.quad	__strdata4064429415119810582_0
	.quad	5                               # 0x5
	.quad	__typeTable+3024
	.long	2                               # 0x2
	.zero	4
	.quad	__strdata2165472437055946676_0
	.quad	6                               # 0x6
	.quad	__typeTable+3024
	.long	4                               # 0x4
	.zero	4

	.section	.rdata,"dr"
	.globl	__strdata15614161432395527090_0 # @__strdata15614161432395527090_0
	.p2align	3
__strdata15614161432395527090_0:
	.asciz	"nil"

	.globl	__strdata9774028892135780561_0  # @__strdata9774028892135780561_0
	.p2align	3
__strdata9774028892135780561_0:
	.asciz	"READ"

	.globl	__strdata4064429415119810582_0  # @__strdata4064429415119810582_0
	.p2align	3
__strdata4064429415119810582_0:
	.asciz	"WRITE"

	.globl	__strdata14194649788198526492_1 # @__strdata14194649788198526492_1
	.p2align	3
__strdata14194649788198526492_1:
	.asciz	"os::windows::FileCreationFlags"

	.globl	__unnamed_42                    # @67
	.p2align	4
__unnamed_42:
	.zero	16
	.quad	5                               # 0x5
	.quad	__unnamed_397
	.quad	32                              # 0x20
	.quad	5                               # 0x5
	.quad	1                               # 0x1
	.byte	0                               # 0x0
	.zero	7

	.data
	.globl	__unnamed_397                   # @68
	.p2align	4
__unnamed_397:
	.quad	__strdata1830676495508911138_1
	.quad	10                              # 0xa
	.quad	__typeTable+3072
	.long	1                               # 0x1
	.zero	4
	.quad	__strdata15535250174093536087_1
	.quad	13                              # 0xd
	.quad	__typeTable+3072
	.long	2                               # 0x2
	.zero	4
	.quad	__strdata14734357341131478563_0
	.quad	13                              # 0xd
	.quad	__typeTable+3072
	.long	3                               # 0x3
	.zero	4
	.quad	__strdata16964190959851119019_1
	.quad	11                              # 0xb
	.quad	__typeTable+3072
	.long	4                               # 0x4
	.zero	4
	.quad	__strdata13368976439603700469_0
	.quad	17                              # 0x11
	.quad	__typeTable+3072
	.long	5                               # 0x5
	.zero	4

	.section	.rdata,"dr"
	.globl	__strdata1830676495508911138_1  # @__strdata1830676495508911138_1
	.p2align	3
__strdata1830676495508911138_1:
	.asciz	"CREATE_NEW"

	.globl	__strdata15535250174093536087_1 # @__strdata15535250174093536087_1
	.p2align	3
__strdata15535250174093536087_1:
	.asciz	"CREATE_ALWAYS"

	.globl	__strdata14734357341131478563_0 # @__strdata14734357341131478563_0
	.p2align	3
__strdata14734357341131478563_0:
	.asciz	"OPEN_EXISTING"

	.globl	__strdata16964190959851119019_1 # @__strdata16964190959851119019_1
	.p2align	3
__strdata16964190959851119019_1:
	.asciz	"OPEN_ALWAYS"

	.globl	__strdata13368976439603700469_0 # @__strdata13368976439603700469_0
	.p2align	3
__strdata13368976439603700469_0:
	.asciz	"TRUNCATE_EXISTING"

	.globl	__strdata6181657167123994845_2  # @__strdata6181657167123994845_2
	.p2align	3
__strdata6181657167123994845_2:
	.asciz	"os::windows::FileAttributeFlags"

	.globl	__unnamed_43                    # @69
	.p2align	4
__unnamed_43:
	.zero	16
	.quad	8                               # 0x8
	.quad	__unnamed_398
	.quad	32                              # 0x20
	.quad	16384                           # 0x4000
	.quad	1                               # 0x1
	.byte	0                               # 0x0
	.zero	7

	.data
	.globl	__unnamed_398                   # @70
	.p2align	4
__unnamed_398:
	.quad	__strdata6958258840484920405_0
	.quad	7                               # 0x7
	.quad	__typeTable+3120
	.long	32                              # 0x20
	.zero	4
	.quad	__strdata5500878729536806615_2
	.quad	9                               # 0x9
	.quad	__typeTable+3120
	.long	16384                           # 0x4000
	.zero	4
	.quad	__strdata6421420952438172405_1
	.quad	6                               # 0x6
	.quad	__typeTable+3120
	.long	2                               # 0x2
	.zero	4
	.quad	__strdata909484392833618392_3
	.quad	6                               # 0x6
	.quad	__typeTable+3120
	.long	128                             # 0x80
	.zero	4
	.quad	__strdata15944557024411216186_1
	.quad	7                               # 0x7
	.quad	__typeTable+3120
	.long	4096                            # 0x1000
	.zero	4
	.quad	__strdata2593531470248703727_1
	.quad	8                               # 0x8
	.quad	__typeTable+3120
	.long	1                               # 0x1
	.zero	4
	.quad	__strdata17838877901541636362_1
	.quad	6                               # 0x6
	.quad	__typeTable+3120
	.long	4                               # 0x4
	.zero	4
	.quad	__strdata12762757255980719754_2
	.quad	9                               # 0x9
	.quad	__typeTable+3120
	.long	256                             # 0x100
	.zero	4

	.section	.rdata,"dr"
	.globl	__strdata6958258840484920405_0  # @__strdata6958258840484920405_0
	.p2align	3
__strdata6958258840484920405_0:
	.asciz	"ARCHIVE"

	.globl	__strdata5500878729536806615_2  # @__strdata5500878729536806615_2
	.p2align	3
__strdata5500878729536806615_2:
	.asciz	"ENCRYPTED"

	.globl	__strdata6421420952438172405_1  # @__strdata6421420952438172405_1
	.p2align	3
__strdata6421420952438172405_1:
	.asciz	"HIDDEN"

	.globl	__strdata909484392833618392_3   # @__strdata909484392833618392_3
	.p2align	3
__strdata909484392833618392_3:
	.asciz	"NORMAL"

	.globl	__strdata15944557024411216186_1 # @__strdata15944557024411216186_1
	.p2align	3
__strdata15944557024411216186_1:
	.asciz	"OFFLINE"

	.globl	__strdata2593531470248703727_1  # @__strdata2593531470248703727_1
	.p2align	3
__strdata2593531470248703727_1:
	.asciz	"READONLY"

	.globl	__strdata17838877901541636362_1 # @__strdata17838877901541636362_1
	.p2align	3
__strdata17838877901541636362_1:
	.asciz	"SYSTEM"

	.globl	__strdata12762757255980719754_2 # @__strdata12762757255980719754_2
	.p2align	3
__strdata12762757255980719754_2:
	.asciz	"TEMPORARY"

	.globl	__strdata10729137111855244535_1 # @__strdata10729137111855244535_1
	.p2align	3
__strdata10729137111855244535_1:
	.asciz	"os::windows::StdHandle"

	.globl	__unnamed_44                    # @71
	.p2align	4
__unnamed_44:
	.zero	16
	.quad	3                               # 0x3
	.quad	__unnamed_399
	.quad	32                              # 0x20
	.quad	-10                             # 0xfffffffffffffff6
	.quad	-12                             # 0xfffffffffffffff4
	.byte	0                               # 0x0
	.zero	7

	.data
	.globl	__unnamed_399                   # @72
	.p2align	4
__unnamed_399:
	.quad	__strdata590603803471573900_1
	.quad	2                               # 0x2
	.quad	__typeTable+3168
	.long	4294967286                      # 0xfffffff6
	.zero	4
	.quad	__strdata15582645031090731467_0
	.quad	3                               # 0x3
	.quad	__typeTable+3168
	.long	4294967285                      # 0xfffffff5
	.zero	4
	.quad	__strdata15592238270044980134_2
	.quad	3                               # 0x3
	.quad	__typeTable+3168
	.long	4294967284                      # 0xfffffff4
	.zero	4

	.section	.rdata,"dr"
	.globl	__strdata590603803471573900_1   # @__strdata590603803471573900_1
	.p2align	3
__strdata590603803471573900_1:
	.asciz	"In"

	.globl	__strdata15582645031090731467_0 # @__strdata15582645031090731467_0
	.p2align	3
__strdata15582645031090731467_0:
	.asciz	"Out"

	.globl	__strdata15592238270044980134_2 # @__strdata15592238270044980134_2
	.p2align	3
__strdata15592238270044980134_2:
	.asciz	"Err"

	.globl	__strdata1666362089862242729_1  # @__strdata1666362089862242729_1
	.p2align	3
__strdata1666362089862242729_1:
	.asciz	"raylib::Color"

	.globl	__unnamed_45                    # @73
	.p2align	4
__unnamed_45:
	.zero	16
	.quad	4                               # 0x4
	.quad	__unnamed_400
	.quad	32                              # 0x20

	.data
	.globl	__unnamed_400                   # @74
	.p2align	4
__unnamed_400:
	.quad	__strdata12638153115695167405_0
	.quad	1                               # 0x1
	.quad	__typeTable+240
	.quad	0                               # 0x0
	.quad	__strdata12638153115695167416_1
	.quad	1                               # 0x1
	.quad	__typeTable+240
	.quad	1                               # 0x1
	.quad	__strdata12638153115695167421_1
	.quad	1                               # 0x1
	.quad	__typeTable+240
	.quad	2                               # 0x2
	.quad	__strdata12638153115695167422_2
	.quad	1                               # 0x1
	.quad	__typeTable+240
	.quad	3                               # 0x3

	.section	.rdata,"dr"
	.globl	__strdata12638153115695167405_0 # @__strdata12638153115695167405_0
	.p2align	3
__strdata12638153115695167405_0:
	.asciz	"r"

	.globl	__strdata12638153115695167416_1 # @__strdata12638153115695167416_1
	.p2align	3
__strdata12638153115695167416_1:
	.asciz	"g"

	.globl	__strdata12638153115695167421_1 # @__strdata12638153115695167421_1
	.p2align	3
__strdata12638153115695167421_1:
	.asciz	"b"

	.globl	__strdata12638153115695167422_2 # @__strdata12638153115695167422_2
	.p2align	3
__strdata12638153115695167422_2:
	.asciz	"a"

	.globl	__strdata3600015184740367505_0  # @__strdata3600015184740367505_0
	.p2align	3
__strdata3600015184740367505_0:
	.asciz	"raylib::Vector2"

	.globl	__unnamed_46                    # @75
	.p2align	4
__unnamed_46:
	.zero	16
	.quad	2                               # 0x2
	.quad	__unnamed_401
	.quad	32                              # 0x20

	.data
	.globl	__unnamed_401                   # @76
	.p2align	4
__unnamed_401:
	.quad	__strdata12638153115695167399_1
	.quad	1                               # 0x1
	.quad	__typeTable+480
	.quad	0                               # 0x0
	.quad	__strdata12638153115695167398_3
	.quad	1                               # 0x1
	.quad	__typeTable+480
	.quad	4                               # 0x4

	.section	.rdata,"dr"
	.globl	__strdata12638153115695167399_1 # @__strdata12638153115695167399_1
	.p2align	3
__strdata12638153115695167399_1:
	.asciz	"x"

	.globl	__strdata12638153115695167398_3 # @__strdata12638153115695167398_3
	.p2align	3
__strdata12638153115695167398_3:
	.asciz	"y"

	.globl	__strdata15826633158210492155_2 # @__strdata15826633158210492155_2
	.p2align	3
__strdata15826633158210492155_2:
	.asciz	"raylib::Rectangle"

	.globl	__unnamed_47                    # @77
	.p2align	4
__unnamed_47:
	.zero	16
	.quad	4                               # 0x4
	.quad	__unnamed_402
	.quad	32                              # 0x20

	.data
	.globl	__unnamed_402                   # @78
	.p2align	4
__unnamed_402:
	.quad	__strdata12638153115695167399_1
	.quad	1                               # 0x1
	.quad	__typeTable+480
	.quad	0                               # 0x0
	.quad	__strdata12638153115695167398_3
	.quad	1                               # 0x1
	.quad	__typeTable+480
	.quad	4                               # 0x4
	.quad	__strdata610203718960201099_1
	.quad	5                               # 0x5
	.quad	__typeTable+480
	.quad	8                               # 0x8
	.quad	__strdata2468078206285534464_3
	.quad	6                               # 0x6
	.quad	__typeTable+480
	.quad	12                              # 0xc

	.section	.rdata,"dr"
	.globl	__strdata610203718960201099_1   # @__strdata610203718960201099_1
	.p2align	3
__strdata610203718960201099_1:
	.asciz	"width"

	.globl	__strdata2468078206285534464_3  # @__strdata2468078206285534464_3
	.p2align	3
__strdata2468078206285534464_3:
	.asciz	"height"

	.globl	__strdata13766225152608088304_1 # @__strdata13766225152608088304_1
	.p2align	3
__strdata13766225152608088304_1:
	.asciz	"raylib::KeyboardKey"

	.globl	__unnamed_48                    # @79
	.p2align	4
__unnamed_48:
	.zero	16
	.quad	110                             # 0x6e
	.quad	__unnamed_403
	.quad	32                              # 0x20
	.quad	348                             # 0x15c
	.quad	0                               # 0x0
	.byte	0                               # 0x0
	.zero	7

	.data
	.globl	__unnamed_403                   # @80
	.p2align	4
__unnamed_403:
	.quad	__strdata4110460559799802282_1
	.quad	8                               # 0x8
	.quad	__typeTable+3360
	.long	0                               # 0x0
	.zero	4
	.quad	__strdata13448926620786385374_0
	.quad	14                              # 0xe
	.quad	__typeTable+3360
	.long	39                              # 0x27
	.zero	4
	.quad	__strdata3493745493276168142_0
	.quad	9                               # 0x9
	.quad	__typeTable+3360
	.long	44                              # 0x2c
	.zero	4
	.quad	__strdata5259690839093737595_3
	.quad	9                               # 0x9
	.quad	__typeTable+3360
	.long	45                              # 0x2d
	.zero	4
	.quad	__strdata6322174137905137062_4
	.quad	10                              # 0xa
	.quad	__typeTable+3360
	.long	46                              # 0x2e
	.zero	4
	.quad	__strdata7871968346658343188_1
	.quad	9                               # 0x9
	.quad	__typeTable+3360
	.long	47                              # 0x2f
	.zero	4
	.quad	__strdata10066416089768190143_0
	.quad	8                               # 0x8
	.quad	__typeTable+3360
	.long	48                              # 0x30
	.zero	4
	.quad	__strdata6977282138964340531_0
	.quad	7                               # 0x7
	.quad	__typeTable+3360
	.long	49                              # 0x31
	.zero	4
	.quad	__strdata6972489367777914897_1
	.quad	7                               # 0x7
	.quad	__typeTable+3360
	.long	50                              # 0x32
	.zero	4
	.quad	__strdata6188717439382955363_2
	.quad	9                               # 0x9
	.quad	__typeTable+3360
	.long	51                              # 0x33
	.zero	4
	.quad	__strdata8971917137783371269_0
	.quad	8                               # 0x8
	.quad	__typeTable+3360
	.long	52                              # 0x34
	.zero	4
	.quad	__strdata8977547736830304593_1
	.quad	8                               # 0x8
	.quad	__typeTable+3360
	.long	53                              # 0x35
	.zero	4
	.quad	__strdata6965947273591384187_4
	.quad	7                               # 0x7
	.quad	__typeTable+3360
	.long	54                              # 0x36
	.zero	4
	.quad	__strdata13498194635498144284_2
	.quad	9                               # 0x9
	.quad	__typeTable+3360
	.long	55                              # 0x37
	.zero	4
	.quad	__strdata13699163047520818450_1
	.quad	9                               # 0x9
	.quad	__typeTable+3360
	.long	56                              # 0x38
	.zero	4
	.quad	__strdata4091353246728536145_2
	.quad	8                               # 0x8
	.quad	__typeTable+3360
	.long	57                              # 0x39
	.zero	4
	.quad	__strdata4605658819260784100_1
	.quad	13                              # 0xd
	.quad	__typeTable+3360
	.long	59                              # 0x3b
	.zero	4
	.quad	__strdata8688773221479075739_1
	.quad	9                               # 0x9
	.quad	__typeTable+3360
	.long	61                              # 0x3d
	.zero	4
	.quad	__strdata13889687731173637658_2
	.quad	5                               # 0x5
	.quad	__typeTable+3360
	.long	65                              # 0x41
	.zero	4
	.quad	__strdata13889687731173637657_1
	.quad	5                               # 0x5
	.quad	__typeTable+3360
	.long	66                              # 0x42
	.zero	4
	.quad	__strdata13889687731173637656_1
	.quad	5                               # 0x5
	.quad	__typeTable+3360
	.long	67                              # 0x43
	.zero	4
	.quad	__strdata13889687731173637663_2
	.quad	5                               # 0x5
	.quad	__typeTable+3360
	.long	68                              # 0x44
	.zero	4
	.quad	__strdata13889687731173637662_0
	.quad	5                               # 0x5
	.quad	__typeTable+3360
	.long	69                              # 0x45
	.zero	4
	.quad	__strdata13889687731173637661_1
	.quad	5                               # 0x5
	.quad	__typeTable+3360
	.long	70                              # 0x46
	.zero	4
	.quad	__strdata13889687731173637660_3
	.quad	5                               # 0x5
	.quad	__typeTable+3360
	.long	71                              # 0x47
	.zero	4
	.quad	__strdata13889687731173637651_3
	.quad	5                               # 0x5
	.quad	__typeTable+3360
	.long	72                              # 0x48
	.zero	4
	.quad	__strdata13889687731173637650_2
	.quad	5                               # 0x5
	.quad	__typeTable+3360
	.long	73                              # 0x49
	.zero	4
	.quad	__strdata13889687731173637649_2
	.quad	5                               # 0x5
	.quad	__typeTable+3360
	.long	74                              # 0x4a
	.zero	4
	.quad	__strdata13889687731173637648_0
	.quad	5                               # 0x5
	.quad	__typeTable+3360
	.long	75                              # 0x4b
	.zero	4
	.quad	__strdata13889687731173637655_0
	.quad	5                               # 0x5
	.quad	__typeTable+3360
	.long	76                              # 0x4c
	.zero	4
	.quad	__strdata13889687731173637654_1
	.quad	5                               # 0x5
	.quad	__typeTable+3360
	.long	77                              # 0x4d
	.zero	4
	.quad	__strdata13889687731173637653_0
	.quad	5                               # 0x5
	.quad	__typeTable+3360
	.long	78                              # 0x4e
	.zero	4
	.quad	__strdata13889687731173637652_2
	.quad	5                               # 0x5
	.quad	__typeTable+3360
	.long	79                              # 0x4f
	.zero	4
	.quad	__strdata13889687731173637643_2
	.quad	5                               # 0x5
	.quad	__typeTable+3360
	.long	80                              # 0x50
	.zero	4
	.quad	__strdata13889687731173637642_3
	.quad	5                               # 0x5
	.quad	__typeTable+3360
	.long	81                              # 0x51
	.zero	4
	.quad	__strdata13889687731173637641_1
	.quad	5                               # 0x5
	.quad	__typeTable+3360
	.long	82                              # 0x52
	.zero	4
	.quad	__strdata13889687731173637640_1
	.quad	5                               # 0x5
	.quad	__typeTable+3360
	.long	83                              # 0x53
	.zero	4
	.quad	__strdata13889687731173637647_1
	.quad	5                               # 0x5
	.quad	__typeTable+3360
	.long	84                              # 0x54
	.zero	4
	.quad	__strdata13889687731173637646_0
	.quad	5                               # 0x5
	.quad	__typeTable+3360
	.long	85                              # 0x55
	.zero	4
	.quad	__strdata13889687731173637645_0
	.quad	5                               # 0x5
	.quad	__typeTable+3360
	.long	86                              # 0x56
	.zero	4
	.quad	__strdata13889687731173637644_2
	.quad	5                               # 0x5
	.quad	__typeTable+3360
	.long	87                              # 0x57
	.zero	4
	.quad	__strdata13889687731173637635_1
	.quad	5                               # 0x5
	.quad	__typeTable+3360
	.long	88                              # 0x58
	.zero	4
	.quad	__strdata13889687731173637634_1
	.quad	5                               # 0x5
	.quad	__typeTable+3360
	.long	89                              # 0x59
	.zero	4
	.quad	__strdata13889687731173637633_1
	.quad	5                               # 0x5
	.quad	__typeTable+3360
	.long	90                              # 0x5a
	.zero	4
	.quad	__strdata8306296198406884483_2
	.quad	16                              # 0x10
	.quad	__typeTable+3360
	.long	91                              # 0x5b
	.zero	4
	.quad	__strdata15520462032726422623_1
	.quad	13                              # 0xd
	.quad	__typeTable+3360
	.long	92                              # 0x5c
	.zero	4
	.quad	__strdata17783529314138735012_0
	.quad	17                              # 0x11
	.quad	__typeTable+3360
	.long	93                              # 0x5d
	.zero	4
	.quad	__strdata10701402806828574216_2
	.quad	9                               # 0x9
	.quad	__typeTable+3360
	.long	96                              # 0x60
	.zero	4
	.quad	__strdata259525979018291693_3
	.quad	9                               # 0x9
	.quad	__typeTable+3360
	.long	32                              # 0x20
	.zero	4
	.quad	__strdata3112043655941256500_2
	.quad	10                              # 0xa
	.quad	__typeTable+3360
	.long	25                              # 0x19
	.zero	4
	.quad	__strdata14177127349238235221_1
	.quad	9                               # 0x9
	.quad	__typeTable+3360
	.long	25                              # 0x19
	.zero	4
	.quad	__strdata6972509158987222710_0
	.quad	7                               # 0x7
	.quad	__typeTable+3360
	.long	25                              # 0x19
	.zero	4
	.quad	__strdata4563718711763566350_1
	.quad	13                              # 0xd
	.quad	__typeTable+3360
	.long	259                             # 0x103
	.zero	4
	.quad	__strdata3352180070863751438_2
	.quad	10                              # 0xa
	.quad	__typeTable+3360
	.long	260                             # 0x104
	.zero	4
	.quad	__strdata12411388345444334296_4
	.quad	10                              # 0xa
	.quad	__typeTable+3360
	.long	261                             # 0x105
	.zero	4
	.quad	__strdata10044634134302482677_2
	.quad	9                               # 0x9
	.quad	__typeTable+3360
	.long	262                             # 0x106
	.zero	4
	.quad	__strdata5343505675907547926_2
	.quad	8                               # 0x8
	.quad	__typeTable+3360
	.long	263                             # 0x107
	.zero	4
	.quad	__strdata10331234567296403437_4
	.quad	8                               # 0x8
	.quad	__typeTable+3360
	.long	264                             # 0x108
	.zero	4
	.quad	__strdata4505969449364287898_3
	.quad	6                               # 0x6
	.quad	__typeTable+3360
	.long	265                             # 0x109
	.zero	4
	.quad	__strdata1589286410377328712_1
	.quad	11                              # 0xb
	.quad	__typeTable+3360
	.long	266                             # 0x10a
	.zero	4
	.quad	__strdata2978201601267196799_0
	.quad	13                              # 0xd
	.quad	__typeTable+3360
	.long	267                             # 0x10b
	.zero	4
	.quad	__strdata2726464591796494216_3
	.quad	8                               # 0x8
	.quad	__typeTable+3360
	.long	268                             # 0x10c
	.zero	4
	.quad	__strdata6986852288174396824_2
	.quad	7                               # 0x7
	.quad	__typeTable+3360
	.long	269                             # 0x10d
	.zero	4
	.quad	__strdata17667970733472118700_3
	.quad	13                              # 0xd
	.quad	__typeTable+3360
	.long	280                             # 0x118
	.zero	4
	.quad	__strdata13858564210496437168_0
	.quad	15                              # 0xf
	.quad	__typeTable+3360
	.long	281                             # 0x119
	.zero	4
	.quad	__strdata4094252797924955727_1
	.quad	12                              # 0xc
	.quad	__typeTable+3360
	.long	282                             # 0x11a
	.zero	4
	.quad	__strdata393029707429282193_3
	.quad	16                              # 0x10
	.quad	__typeTable+3360
	.long	283                             # 0x11b
	.zero	4
	.quad	__strdata7300166332760541697_2
	.quad	9                               # 0x9
	.quad	__typeTable+3360
	.long	284                             # 0x11c
	.zero	4
	.quad	__strdata4505985942038711158_1
	.quad	6                               # 0x6
	.quad	__typeTable+3360
	.long	290                             # 0x122
	.zero	4
	.quad	__strdata4505985942038711157_3
	.quad	6                               # 0x6
	.quad	__typeTable+3360
	.long	291                             # 0x123
	.zero	4
	.quad	__strdata4505985942038711156_3
	.quad	6                               # 0x6
	.quad	__typeTable+3360
	.long	292                             # 0x124
	.zero	4
	.quad	__strdata4505985942038711155_0
	.quad	6                               # 0x6
	.quad	__typeTable+3360
	.long	293                             # 0x125
	.zero	4
	.quad	__strdata4505985942038711154_2
	.quad	6                               # 0x6
	.quad	__typeTable+3360
	.long	294                             # 0x126
	.zero	4
	.quad	__strdata4505985942038711153_0
	.quad	6                               # 0x6
	.quad	__typeTable+3360
	.long	295                             # 0x127
	.zero	4
	.quad	__strdata4505985942038711152_2
	.quad	6                               # 0x6
	.quad	__typeTable+3360
	.long	296                             # 0x128
	.zero	4
	.quad	__strdata4505985942038711167_1
	.quad	6                               # 0x6
	.quad	__typeTable+3360
	.long	297                             # 0x129
	.zero	4
	.quad	__strdata4505985942038711166_2
	.quad	6                               # 0x6
	.quad	__typeTable+3360
	.long	298                             # 0x12a
	.zero	4
	.quad	__strdata6986024355918543282_1
	.quad	7                               # 0x7
	.quad	__typeTable+3360
	.long	299                             # 0x12b
	.zero	4
	.quad	__strdata6986024355918543283_1
	.quad	7                               # 0x7
	.quad	__typeTable+3360
	.long	300                             # 0x12c
	.zero	4
	.quad	__strdata6986024355918543280_1
	.quad	7                               # 0x7
	.quad	__typeTable+3360
	.long	301                             # 0x12d
	.zero	4
	.quad	__strdata8651343041045962143_3
	.quad	14                              # 0xe
	.quad	__typeTable+3360
	.long	340                             # 0x154
	.zero	4
	.quad	__strdata7820065786015986616_2
	.quad	16                              # 0x10
	.quad	__typeTable+3360
	.long	341                             # 0x155
	.zero	4
	.quad	__strdata13201752606083278638_0
	.quad	12                              # 0xc
	.quad	__typeTable+3360
	.long	342                             # 0x156
	.zero	4
	.quad	__strdata1807677004634586558_3
	.quad	14                              # 0xe
	.quad	__typeTable+3360
	.long	343                             # 0x157
	.zero	4
	.quad	__strdata9213819703196585788_2
	.quad	15                              # 0xf
	.quad	__typeTable+3360
	.long	344                             # 0x158
	.zero	4
	.quad	__strdata5050082848328729527_4
	.quad	17                              # 0x11
	.quad	__typeTable+3360
	.long	345                             # 0x159
	.zero	4
	.quad	__strdata12638981430902053225_1
	.quad	13                              # 0xd
	.quad	__typeTable+3360
	.long	346                             # 0x15a
	.zero	4
	.quad	__strdata6101605860878391241_0
	.quad	15                              # 0xf
	.quad	__typeTable+3360
	.long	347                             # 0x15b
	.zero	4
	.quad	__strdata13102511259008099124_3
	.quad	11                              # 0xb
	.quad	__typeTable+3360
	.long	348                             # 0x15c
	.zero	4
	.quad	__strdata963994731246390781_0
	.quad	8                               # 0x8
	.quad	__typeTable+3360
	.long	320                             # 0x140
	.zero	4
	.quad	__strdata963994731246390780_0
	.quad	8                               # 0x8
	.quad	__typeTable+3360
	.long	321                             # 0x141
	.zero	4
	.quad	__strdata963994731246390783_2
	.quad	8                               # 0x8
	.quad	__typeTable+3360
	.long	322                             # 0x142
	.zero	4
	.quad	__strdata963994731246390782_3
	.quad	8                               # 0x8
	.quad	__typeTable+3360
	.long	323                             # 0x143
	.zero	4
	.quad	__strdata963994731246390777_1
	.quad	8                               # 0x8
	.quad	__typeTable+3360
	.long	324                             # 0x144
	.zero	4
	.quad	__strdata963994731246390776_2
	.quad	8                               # 0x8
	.quad	__typeTable+3360
	.long	325                             # 0x145
	.zero	4
	.quad	__strdata963994731246390779_5
	.quad	8                               # 0x8
	.quad	__typeTable+3360
	.long	326                             # 0x146
	.zero	4
	.quad	__strdata963994731246390778_1
	.quad	8                               # 0x8
	.quad	__typeTable+3360
	.long	327                             # 0x147
	.zero	4
	.quad	__strdata963994731246390773_4
	.quad	8                               # 0x8
	.quad	__typeTable+3360
	.long	328                             # 0x148
	.zero	4
	.quad	__strdata963994731246390772_4
	.quad	8                               # 0x8
	.quad	__typeTable+3360
	.long	329                             # 0x149
	.zero	4
	.quad	__strdata1094909058085499068_3
	.quad	14                              # 0xe
	.quad	__typeTable+3360
	.long	330                             # 0x14a
	.zero	4
	.quad	__strdata6793525611770262152_4
	.quad	13                              # 0xd
	.quad	__typeTable+3360
	.long	331                             # 0x14b
	.zero	4
	.quad	__strdata16056021751147829935_0
	.quad	15                              # 0xf
	.quad	__typeTable+3360
	.long	332                             # 0x14c
	.zero	4
	.quad	__strdata5547274067818085171_2
	.quad	15                              # 0xf
	.quad	__typeTable+3360
	.long	333                             # 0x14d
	.zero	4
	.quad	__strdata4303344581291203492_1
	.quad	10                              # 0xa
	.quad	__typeTable+3360
	.long	334                             # 0x14e
	.zero	4
	.quad	__strdata2764010236987324023_2
	.quad	12                              # 0xc
	.quad	__typeTable+3360
	.long	335                             # 0x14f
	.zero	4
	.quad	__strdata13095644913593310669_2
	.quad	12                              # 0xc
	.quad	__typeTable+3360
	.long	336                             # 0x150
	.zero	4
	.quad	__strdata6473353929146730012_4
	.quad	8                               # 0x8
	.quad	__typeTable+3360
	.long	4                               # 0x4
	.zero	4
	.quad	__strdata4606464548797681636_2
	.quad	8                               # 0x8
	.quad	__typeTable+3360
	.long	82                              # 0x52
	.zero	4
	.quad	__strdata14494669419224264625_1
	.quad	13                              # 0xd
	.quad	__typeTable+3360
	.long	24                              # 0x18
	.zero	4
	.quad	__strdata15814542918115778866_2
	.quad	15                              # 0xf
	.quad	__typeTable+3360
	.long	25                              # 0x19
	.zero	4

	.section	.rdata,"dr"
	.globl	__strdata4110460559799802282_1  # @__strdata4110460559799802282_1
	.p2align	3
__strdata4110460559799802282_1:
	.asciz	"KEY_NULL"

	.globl	__strdata13448926620786385374_0 # @__strdata13448926620786385374_0
	.p2align	3
__strdata13448926620786385374_0:
	.asciz	"KEY_APOSTROPHE"

	.globl	__strdata3493745493276168142_0  # @__strdata3493745493276168142_0
	.p2align	3
__strdata3493745493276168142_0:
	.asciz	"KEY_COMMA"

	.globl	__strdata5259690839093737595_3  # @__strdata5259690839093737595_3
	.p2align	3
__strdata5259690839093737595_3:
	.asciz	"KEY_MINUS"

	.globl	__strdata6322174137905137062_4  # @__strdata6322174137905137062_4
	.p2align	3
__strdata6322174137905137062_4:
	.asciz	"KEY_PERIOD"

	.globl	__strdata7871968346658343188_1  # @__strdata7871968346658343188_1
	.p2align	3
__strdata7871968346658343188_1:
	.asciz	"KEY_SLASH"

	.globl	__strdata10066416089768190143_0 # @__strdata10066416089768190143_0
	.p2align	3
__strdata10066416089768190143_0:
	.asciz	"KEY_ZERO"

	.globl	__strdata6977282138964340531_0  # @__strdata6977282138964340531_0
	.p2align	3
__strdata6977282138964340531_0:
	.asciz	"KEY_ONE"

	.globl	__strdata6972489367777914897_1  # @__strdata6972489367777914897_1
	.p2align	3
__strdata6972489367777914897_1:
	.asciz	"KEY_TWO"

	.globl	__strdata6188717439382955363_2  # @__strdata6188717439382955363_2
	.p2align	3
__strdata6188717439382955363_2:
	.asciz	"KEY_THREE"

	.globl	__strdata8971917137783371269_0  # @__strdata8971917137783371269_0
	.p2align	3
__strdata8971917137783371269_0:
	.asciz	"KEY_FOUR"

	.globl	__strdata8977547736830304593_1  # @__strdata8977547736830304593_1
	.p2align	3
__strdata8977547736830304593_1:
	.asciz	"KEY_FIVE"

	.globl	__strdata6965947273591384187_4  # @__strdata6965947273591384187_4
	.p2align	3
__strdata6965947273591384187_4:
	.asciz	"KEY_SIX"

	.globl	__strdata13498194635498144284_2 # @__strdata13498194635498144284_2
	.p2align	3
__strdata13498194635498144284_2:
	.asciz	"KEY_SEVEN"

	.globl	__strdata13699163047520818450_1 # @__strdata13699163047520818450_1
	.p2align	3
__strdata13699163047520818450_1:
	.asciz	"KEY_EIGHT"

	.globl	__strdata4091353246728536145_2  # @__strdata4091353246728536145_2
	.p2align	3
__strdata4091353246728536145_2:
	.asciz	"KEY_NINE"

	.globl	__strdata4605658819260784100_1  # @__strdata4605658819260784100_1
	.p2align	3
__strdata4605658819260784100_1:
	.asciz	"KEY_SEMICOLON"

	.globl	__strdata8688773221479075739_1  # @__strdata8688773221479075739_1
	.p2align	3
__strdata8688773221479075739_1:
	.asciz	"KEY_EQUAL"

	.globl	__strdata13889687731173637658_2 # @__strdata13889687731173637658_2
	.p2align	3
__strdata13889687731173637658_2:
	.asciz	"KEY_A"

	.globl	__strdata13889687731173637657_1 # @__strdata13889687731173637657_1
	.p2align	3
__strdata13889687731173637657_1:
	.asciz	"KEY_B"

	.globl	__strdata13889687731173637656_1 # @__strdata13889687731173637656_1
	.p2align	3
__strdata13889687731173637656_1:
	.asciz	"KEY_C"

	.globl	__strdata13889687731173637663_2 # @__strdata13889687731173637663_2
	.p2align	3
__strdata13889687731173637663_2:
	.asciz	"KEY_D"

	.globl	__strdata13889687731173637662_0 # @__strdata13889687731173637662_0
	.p2align	3
__strdata13889687731173637662_0:
	.asciz	"KEY_E"

	.globl	__strdata13889687731173637661_1 # @__strdata13889687731173637661_1
	.p2align	3
__strdata13889687731173637661_1:
	.asciz	"KEY_F"

	.globl	__strdata13889687731173637660_3 # @__strdata13889687731173637660_3
	.p2align	3
__strdata13889687731173637660_3:
	.asciz	"KEY_G"

	.globl	__strdata13889687731173637651_3 # @__strdata13889687731173637651_3
	.p2align	3
__strdata13889687731173637651_3:
	.asciz	"KEY_H"

	.globl	__strdata13889687731173637650_2 # @__strdata13889687731173637650_2
	.p2align	3
__strdata13889687731173637650_2:
	.asciz	"KEY_I"

	.globl	__strdata13889687731173637649_2 # @__strdata13889687731173637649_2
	.p2align	3
__strdata13889687731173637649_2:
	.asciz	"KEY_J"

	.globl	__strdata13889687731173637648_0 # @__strdata13889687731173637648_0
	.p2align	3
__strdata13889687731173637648_0:
	.asciz	"KEY_K"

	.globl	__strdata13889687731173637655_0 # @__strdata13889687731173637655_0
	.p2align	3
__strdata13889687731173637655_0:
	.asciz	"KEY_L"

	.globl	__strdata13889687731173637654_1 # @__strdata13889687731173637654_1
	.p2align	3
__strdata13889687731173637654_1:
	.asciz	"KEY_M"

	.globl	__strdata13889687731173637653_0 # @__strdata13889687731173637653_0
	.p2align	3
__strdata13889687731173637653_0:
	.asciz	"KEY_N"

	.globl	__strdata13889687731173637652_2 # @__strdata13889687731173637652_2
	.p2align	3
__strdata13889687731173637652_2:
	.asciz	"KEY_O"

	.globl	__strdata13889687731173637643_2 # @__strdata13889687731173637643_2
	.p2align	3
__strdata13889687731173637643_2:
	.asciz	"KEY_P"

	.globl	__strdata13889687731173637642_3 # @__strdata13889687731173637642_3
	.p2align	3
__strdata13889687731173637642_3:
	.asciz	"KEY_Q"

	.globl	__strdata13889687731173637641_1 # @__strdata13889687731173637641_1
	.p2align	3
__strdata13889687731173637641_1:
	.asciz	"KEY_R"

	.globl	__strdata13889687731173637640_1 # @__strdata13889687731173637640_1
	.p2align	3
__strdata13889687731173637640_1:
	.asciz	"KEY_S"

	.globl	__strdata13889687731173637647_1 # @__strdata13889687731173637647_1
	.p2align	3
__strdata13889687731173637647_1:
	.asciz	"KEY_T"

	.globl	__strdata13889687731173637646_0 # @__strdata13889687731173637646_0
	.p2align	3
__strdata13889687731173637646_0:
	.asciz	"KEY_U"

	.globl	__strdata13889687731173637645_0 # @__strdata13889687731173637645_0
	.p2align	3
__strdata13889687731173637645_0:
	.asciz	"KEY_V"

	.globl	__strdata13889687731173637644_2 # @__strdata13889687731173637644_2
	.p2align	3
__strdata13889687731173637644_2:
	.asciz	"KEY_W"

	.globl	__strdata13889687731173637635_1 # @__strdata13889687731173637635_1
	.p2align	3
__strdata13889687731173637635_1:
	.asciz	"KEY_X"

	.globl	__strdata13889687731173637634_1 # @__strdata13889687731173637634_1
	.p2align	3
__strdata13889687731173637634_1:
	.asciz	"KEY_Y"

	.globl	__strdata13889687731173637633_1 # @__strdata13889687731173637633_1
	.p2align	3
__strdata13889687731173637633_1:
	.asciz	"KEY_Z"

	.globl	__strdata8306296198406884483_2  # @__strdata8306296198406884483_2
	.p2align	3
__strdata8306296198406884483_2:
	.asciz	"KEY_LEFT_BRACKET"

	.globl	__strdata15520462032726422623_1 # @__strdata15520462032726422623_1
	.p2align	3
__strdata15520462032726422623_1:
	.asciz	"KEY_BACKSLASH"

	.globl	__strdata17783529314138735012_0 # @__strdata17783529314138735012_0
	.p2align	3
__strdata17783529314138735012_0:
	.asciz	"KEY_RIGHT_BRACKET"

	.globl	__strdata10701402806828574216_2 # @__strdata10701402806828574216_2
	.p2align	3
__strdata10701402806828574216_2:
	.asciz	"KEY_GRAVE"

	.globl	__strdata259525979018291693_3   # @__strdata259525979018291693_3
	.p2align	3
__strdata259525979018291693_3:
	.asciz	"KEY_SPACE"

	.globl	__strdata3112043655941256500_2  # @__strdata3112043655941256500_2
	.p2align	3
__strdata3112043655941256500_2:
	.asciz	"KEY_ESCAPE"

	.globl	__strdata14177127349238235221_1 # @__strdata14177127349238235221_1
	.p2align	3
__strdata14177127349238235221_1:
	.asciz	"KEY_ENTER"

	.globl	__strdata6972509158987222710_0  # @__strdata6972509158987222710_0
	.p2align	3
__strdata6972509158987222710_0:
	.asciz	"KEY_TAB"

	.globl	__strdata4563718711763566350_1  # @__strdata4563718711763566350_1
	.p2align	3
__strdata4563718711763566350_1:
	.asciz	"KEY_BACKSPACE"

	.globl	__strdata3352180070863751438_2  # @__strdata3352180070863751438_2
	.p2align	3
__strdata3352180070863751438_2:
	.asciz	"KEY_INSERT"

	.globl	__strdata12411388345444334296_4 # @__strdata12411388345444334296_4
	.p2align	3
__strdata12411388345444334296_4:
	.asciz	"KEY_DELETE"

	.globl	__strdata10044634134302482677_2 # @__strdata10044634134302482677_2
	.p2align	3
__strdata10044634134302482677_2:
	.asciz	"KEY_RIGHT"

	.globl	__strdata5343505675907547926_2  # @__strdata5343505675907547926_2
	.p2align	3
__strdata5343505675907547926_2:
	.asciz	"KEY_LEFT"

	.globl	__strdata10331234567296403437_4 # @__strdata10331234567296403437_4
	.p2align	3
__strdata10331234567296403437_4:
	.asciz	"KEY_DOWN"

	.globl	__strdata4505969449364287898_3  # @__strdata4505969449364287898_3
	.p2align	3
__strdata4505969449364287898_3:
	.asciz	"KEY_UP"

	.globl	__strdata1589286410377328712_1  # @__strdata1589286410377328712_1
	.p2align	3
__strdata1589286410377328712_1:
	.asciz	"KEY_PAGE_UP"

	.globl	__strdata2978201601267196799_0  # @__strdata2978201601267196799_0
	.p2align	3
__strdata2978201601267196799_0:
	.asciz	"KEY_PAGE_DOWN"

	.globl	__strdata2726464591796494216_3  # @__strdata2726464591796494216_3
	.p2align	3
__strdata2726464591796494216_3:
	.asciz	"KEY_HOME"

	.globl	__strdata6986852288174396824_2  # @__strdata6986852288174396824_2
	.p2align	3
__strdata6986852288174396824_2:
	.asciz	"KEY_END"

	.globl	__strdata17667970733472118700_3 # @__strdata17667970733472118700_3
	.p2align	3
__strdata17667970733472118700_3:
	.asciz	"KEY_CAPS_LOCK"

	.globl	__strdata13858564210496437168_0 # @__strdata13858564210496437168_0
	.p2align	3
__strdata13858564210496437168_0:
	.asciz	"KEY_SCROLL_LOCK"

	.globl	__strdata4094252797924955727_1  # @__strdata4094252797924955727_1
	.p2align	3
__strdata4094252797924955727_1:
	.asciz	"KEY_NUM_LOCK"

	.globl	__strdata393029707429282193_3   # @__strdata393029707429282193_3
	.p2align	3
__strdata393029707429282193_3:
	.asciz	"KEY_PRINT_SCREEN"

	.globl	__strdata7300166332760541697_2  # @__strdata7300166332760541697_2
	.p2align	3
__strdata7300166332760541697_2:
	.asciz	"KEY_PAUSE"

	.globl	__strdata4505985942038711158_1  # @__strdata4505985942038711158_1
	.p2align	3
__strdata4505985942038711158_1:
	.asciz	"KEY_F1"

	.globl	__strdata4505985942038711157_3  # @__strdata4505985942038711157_3
	.p2align	3
__strdata4505985942038711157_3:
	.asciz	"KEY_F2"

	.globl	__strdata4505985942038711156_3  # @__strdata4505985942038711156_3
	.p2align	3
__strdata4505985942038711156_3:
	.asciz	"KEY_F3"

	.globl	__strdata4505985942038711155_0  # @__strdata4505985942038711155_0
	.p2align	3
__strdata4505985942038711155_0:
	.asciz	"KEY_F4"

	.globl	__strdata4505985942038711154_2  # @__strdata4505985942038711154_2
	.p2align	3
__strdata4505985942038711154_2:
	.asciz	"KEY_F5"

	.globl	__strdata4505985942038711153_0  # @__strdata4505985942038711153_0
	.p2align	3
__strdata4505985942038711153_0:
	.asciz	"KEY_F6"

	.globl	__strdata4505985942038711152_2  # @__strdata4505985942038711152_2
	.p2align	3
__strdata4505985942038711152_2:
	.asciz	"KEY_F7"

	.globl	__strdata4505985942038711167_1  # @__strdata4505985942038711167_1
	.p2align	3
__strdata4505985942038711167_1:
	.asciz	"KEY_F8"

	.globl	__strdata4505985942038711166_2  # @__strdata4505985942038711166_2
	.p2align	3
__strdata4505985942038711166_2:
	.asciz	"KEY_F9"

	.globl	__strdata6986024355918543282_1  # @__strdata6986024355918543282_1
	.p2align	3
__strdata6986024355918543282_1:
	.asciz	"KEY_F10"

	.globl	__strdata6986024355918543283_1  # @__strdata6986024355918543283_1
	.p2align	3
__strdata6986024355918543283_1:
	.asciz	"KEY_F11"

	.globl	__strdata6986024355918543280_1  # @__strdata6986024355918543280_1
	.p2align	3
__strdata6986024355918543280_1:
	.asciz	"KEY_F12"

	.globl	__strdata8651343041045962143_3  # @__strdata8651343041045962143_3
	.p2align	3
__strdata8651343041045962143_3:
	.asciz	"KEY_LEFT_SHIFT"

	.globl	__strdata7820065786015986616_2  # @__strdata7820065786015986616_2
	.p2align	3
__strdata7820065786015986616_2:
	.asciz	"KEY_LEFT_CONTROL"

	.globl	__strdata13201752606083278638_0 # @__strdata13201752606083278638_0
	.p2align	3
__strdata13201752606083278638_0:
	.asciz	"KEY_LEFT_ALT"

	.globl	__strdata1807677004634586558_3  # @__strdata1807677004634586558_3
	.p2align	3
__strdata1807677004634586558_3:
	.asciz	"KEY_LEFT_SUPER"

	.globl	__strdata9213819703196585788_2  # @__strdata9213819703196585788_2
	.p2align	3
__strdata9213819703196585788_2:
	.asciz	"KEY_RIGHT_SHIFT"

	.globl	__strdata5050082848328729527_4  # @__strdata5050082848328729527_4
	.p2align	3
__strdata5050082848328729527_4:
	.asciz	"KEY_RIGHT_CONTROL"

	.globl	__strdata12638981430902053225_1 # @__strdata12638981430902053225_1
	.p2align	3
__strdata12638981430902053225_1:
	.asciz	"KEY_RIGHT_ALT"

	.globl	__strdata6101605860878391241_0  # @__strdata6101605860878391241_0
	.p2align	3
__strdata6101605860878391241_0:
	.asciz	"KEY_RIGHT_SUPER"

	.globl	__strdata13102511259008099124_3 # @__strdata13102511259008099124_3
	.p2align	3
__strdata13102511259008099124_3:
	.asciz	"KEY_KB_MENU"

	.globl	__strdata963994731246390781_0   # @__strdata963994731246390781_0
	.p2align	3
__strdata963994731246390781_0:
	.asciz	"KEY_KP_0"

	.globl	__strdata963994731246390780_0   # @__strdata963994731246390780_0
	.p2align	3
__strdata963994731246390780_0:
	.asciz	"KEY_KP_1"

	.globl	__strdata963994731246390783_2   # @__strdata963994731246390783_2
	.p2align	3
__strdata963994731246390783_2:
	.asciz	"KEY_KP_2"

	.globl	__strdata963994731246390782_3   # @__strdata963994731246390782_3
	.p2align	3
__strdata963994731246390782_3:
	.asciz	"KEY_KP_3"

	.globl	__strdata963994731246390777_1   # @__strdata963994731246390777_1
	.p2align	3
__strdata963994731246390777_1:
	.asciz	"KEY_KP_4"

	.globl	__strdata963994731246390776_2   # @__strdata963994731246390776_2
	.p2align	3
__strdata963994731246390776_2:
	.asciz	"KEY_KP_5"

	.globl	__strdata963994731246390779_5   # @__strdata963994731246390779_5
	.p2align	3
__strdata963994731246390779_5:
	.asciz	"KEY_KP_6"

	.globl	__strdata963994731246390778_1   # @__strdata963994731246390778_1
	.p2align	3
__strdata963994731246390778_1:
	.asciz	"KEY_KP_7"

	.globl	__strdata963994731246390773_4   # @__strdata963994731246390773_4
	.p2align	3
__strdata963994731246390773_4:
	.asciz	"KEY_KP_8"

	.globl	__strdata963994731246390772_4   # @__strdata963994731246390772_4
	.p2align	3
__strdata963994731246390772_4:
	.asciz	"KEY_KP_9"

	.globl	__strdata1094909058085499068_3  # @__strdata1094909058085499068_3
	.p2align	3
__strdata1094909058085499068_3:
	.asciz	"KEY_KP_DECIMAL"

	.globl	__strdata6793525611770262152_4  # @__strdata6793525611770262152_4
	.p2align	3
__strdata6793525611770262152_4:
	.asciz	"KEY_KP_DIVIDE"

	.globl	__strdata16056021751147829935_0 # @__strdata16056021751147829935_0
	.p2align	3
__strdata16056021751147829935_0:
	.asciz	"KEY_KP_MULTIPLY"

	.globl	__strdata5547274067818085171_2  # @__strdata5547274067818085171_2
	.p2align	3
__strdata5547274067818085171_2:
	.asciz	"KEY_KP_SUBTRACT"

	.globl	__strdata4303344581291203492_1  # @__strdata4303344581291203492_1
	.p2align	3
__strdata4303344581291203492_1:
	.asciz	"KEY_KP_ADD"

	.globl	__strdata2764010236987324023_2  # @__strdata2764010236987324023_2
	.p2align	3
__strdata2764010236987324023_2:
	.asciz	"KEY_KP_ENTER"

	.globl	__strdata13095644913593310669_2 # @__strdata13095644913593310669_2
	.p2align	3
__strdata13095644913593310669_2:
	.asciz	"KEY_KP_EQUAL"

	.globl	__strdata6473353929146730012_4  # @__strdata6473353929146730012_4
	.p2align	3
__strdata6473353929146730012_4:
	.asciz	"KEY_BACK"

	.globl	__strdata4606464548797681636_2  # @__strdata4606464548797681636_2
	.p2align	3
__strdata4606464548797681636_2:
	.asciz	"KEY_MENU"

	.globl	__strdata14494669419224264625_1 # @__strdata14494669419224264625_1
